
Alignment.elf:     file format elf32-avr

Sections:
Idx Name          Size      VMA       LMA       File off  Algn
  0 .data         0000004a  00800200  00000fdc  00001070  2**0
                  CONTENTS, ALLOC, LOAD, DATA
  1 .text         00000fdc  00000000  00000000  00000094  2**1
                  CONTENTS, ALLOC, LOAD, READONLY, CODE
  2 .bss          00000067  0080024a  0080024a  000010ba  2**0
                  ALLOC
  3 .comment      00000030  00000000  00000000  000010ba  2**0
                  CONTENTS, READONLY
  4 .debug_aranges 00000380  00000000  00000000  000010ea  2**0
                  CONTENTS, READONLY, DEBUGGING
  5 .debug_info   00003de2  00000000  00000000  0000146a  2**0
                  CONTENTS, READONLY, DEBUGGING
  6 .debug_abbrev 000004c9  00000000  00000000  0000524c  2**0
                  CONTENTS, READONLY, DEBUGGING
  7 .debug_line   00002814  00000000  00000000  00005715  2**0
                  CONTENTS, READONLY, DEBUGGING
  8 .debug_frame  000009cc  00000000  00000000  00007f2c  2**2
                  CONTENTS, READONLY, DEBUGGING
  9 .debug_str    00000868  00000000  00000000  000088f8  2**0
                  CONTENTS, READONLY, DEBUGGING
 10 .debug_loc    0000230e  00000000  00000000  00009160  2**0
                  CONTENTS, READONLY, DEBUGGING
 11 .debug_ranges 000003e8  00000000  00000000  0000b46e  2**0
                  CONTENTS, READONLY, DEBUGGING

Disassembly of section .text:

00000000 <__vectors>:
   0:	71 c0       	rjmp	.+226    	; 0xe4 <__ctors_end>
   2:	00 00       	nop
   4:	06 c3       	rjmp	.+1548   	; 0x612 <__vector_1>
   6:	00 00       	nop
   8:	8c c0       	rjmp	.+280    	; 0x122 <__bad_interrupt>
   a:	00 00       	nop
   c:	8a c0       	rjmp	.+276    	; 0x122 <__bad_interrupt>
   e:	00 00       	nop
  10:	88 c0       	rjmp	.+272    	; 0x122 <__bad_interrupt>
  12:	00 00       	nop
  14:	74 c3       	rjmp	.+1768   	; 0x6fe <__vector_5>
  16:	00 00       	nop
  18:	4d c3       	rjmp	.+1690   	; 0x6b4 <__vector_6>
  1a:	00 00       	nop
  1c:	82 c0       	rjmp	.+260    	; 0x122 <__bad_interrupt>
  1e:	00 00       	nop
  20:	80 c0       	rjmp	.+256    	; 0x122 <__bad_interrupt>
  22:	00 00       	nop
  24:	7e c0       	rjmp	.+252    	; 0x122 <__bad_interrupt>
  26:	00 00       	nop
  28:	7c c0       	rjmp	.+248    	; 0x122 <__bad_interrupt>
  2a:	00 00       	nop
  2c:	7a c0       	rjmp	.+244    	; 0x122 <__bad_interrupt>
  2e:	00 00       	nop
  30:	78 c0       	rjmp	.+240    	; 0x122 <__bad_interrupt>
  32:	00 00       	nop
  34:	76 c0       	rjmp	.+236    	; 0x122 <__bad_interrupt>
  36:	00 00       	nop
  38:	74 c0       	rjmp	.+232    	; 0x122 <__bad_interrupt>
  3a:	00 00       	nop
  3c:	72 c0       	rjmp	.+228    	; 0x122 <__bad_interrupt>
  3e:	00 00       	nop
  40:	70 c0       	rjmp	.+224    	; 0x122 <__bad_interrupt>
  42:	00 00       	nop
  44:	6e c0       	rjmp	.+220    	; 0x122 <__bad_interrupt>
  46:	00 00       	nop
  48:	6c c0       	rjmp	.+216    	; 0x122 <__bad_interrupt>
  4a:	00 00       	nop
  4c:	6a c0       	rjmp	.+212    	; 0x122 <__bad_interrupt>
  4e:	00 00       	nop
  50:	68 c0       	rjmp	.+208    	; 0x122 <__bad_interrupt>
  52:	00 00       	nop
  54:	66 c0       	rjmp	.+204    	; 0x122 <__bad_interrupt>
  56:	00 00       	nop
  58:	64 c0       	rjmp	.+200    	; 0x122 <__bad_interrupt>
  5a:	00 00       	nop
  5c:	62 c0       	rjmp	.+196    	; 0x122 <__bad_interrupt>
  5e:	00 00       	nop
  60:	60 c0       	rjmp	.+192    	; 0x122 <__bad_interrupt>
  62:	00 00       	nop
  64:	5e c0       	rjmp	.+188    	; 0x122 <__bad_interrupt>
  66:	00 00       	nop
  68:	5c c0       	rjmp	.+184    	; 0x122 <__bad_interrupt>
  6a:	00 00       	nop
  6c:	5a c0       	rjmp	.+180    	; 0x122 <__bad_interrupt>
  6e:	00 00       	nop
  70:	58 c0       	rjmp	.+176    	; 0x122 <__bad_interrupt>
  72:	00 00       	nop
  74:	56 c0       	rjmp	.+172    	; 0x122 <__bad_interrupt>
  76:	00 00       	nop
  78:	54 c0       	rjmp	.+168    	; 0x122 <__bad_interrupt>
  7a:	00 00       	nop
  7c:	52 c0       	rjmp	.+164    	; 0x122 <__bad_interrupt>
  7e:	00 00       	nop
  80:	50 c0       	rjmp	.+160    	; 0x122 <__bad_interrupt>
  82:	00 00       	nop
  84:	4e c0       	rjmp	.+156    	; 0x122 <__bad_interrupt>
  86:	00 00       	nop
  88:	4c c0       	rjmp	.+152    	; 0x122 <__bad_interrupt>
  8a:	00 00       	nop
  8c:	4a c0       	rjmp	.+148    	; 0x122 <__bad_interrupt>
  8e:	00 00       	nop
  90:	48 c0       	rjmp	.+144    	; 0x122 <__bad_interrupt>
  92:	00 00       	nop
  94:	46 c0       	rjmp	.+140    	; 0x122 <__bad_interrupt>
  96:	00 00       	nop
  98:	44 c0       	rjmp	.+136    	; 0x122 <__bad_interrupt>
  9a:	00 00       	nop
  9c:	42 c0       	rjmp	.+132    	; 0x122 <__bad_interrupt>
  9e:	00 00       	nop
  a0:	40 c0       	rjmp	.+128    	; 0x122 <__bad_interrupt>
  a2:	00 00       	nop
  a4:	3e c0       	rjmp	.+124    	; 0x122 <__bad_interrupt>
  a6:	00 00       	nop
  a8:	3c c0       	rjmp	.+120    	; 0x122 <__bad_interrupt>
  aa:	00 00       	nop
  ac:	3a c0       	rjmp	.+116    	; 0x122 <__bad_interrupt>
  ae:	00 00       	nop
  b0:	38 c0       	rjmp	.+112    	; 0x122 <__bad_interrupt>
  b2:	00 00       	nop
  b4:	36 c0       	rjmp	.+108    	; 0x122 <__bad_interrupt>
  b6:	00 00       	nop
  b8:	34 c0       	rjmp	.+104    	; 0x122 <__bad_interrupt>
  ba:	00 00       	nop
  bc:	32 c0       	rjmp	.+100    	; 0x122 <__bad_interrupt>
  be:	00 00       	nop
  c0:	30 c0       	rjmp	.+96     	; 0x122 <__bad_interrupt>
  c2:	00 00       	nop
  c4:	2e c0       	rjmp	.+92     	; 0x122 <__bad_interrupt>
  c6:	00 00       	nop
  c8:	2c c0       	rjmp	.+88     	; 0x122 <__bad_interrupt>
  ca:	00 00       	nop
  cc:	2a c0       	rjmp	.+84     	; 0x122 <__bad_interrupt>
  ce:	00 00       	nop
  d0:	28 c0       	rjmp	.+80     	; 0x122 <__bad_interrupt>
  d2:	00 00       	nop
  d4:	26 c0       	rjmp	.+76     	; 0x122 <__bad_interrupt>
  d6:	00 00       	nop
  d8:	24 c0       	rjmp	.+72     	; 0x122 <__bad_interrupt>
  da:	00 00       	nop
  dc:	22 c0       	rjmp	.+68     	; 0x122 <__bad_interrupt>
  de:	00 00       	nop
  e0:	20 c0       	rjmp	.+64     	; 0x122 <__bad_interrupt>
	...

000000e4 <__ctors_end>:
  e4:	11 24       	eor	r1, r1
  e6:	1f be       	out	0x3f, r1	; 63
  e8:	cf ef       	ldi	r28, 0xFF	; 255
  ea:	d1 e2       	ldi	r29, 0x21	; 33
  ec:	de bf       	out	0x3e, r29	; 62
  ee:	cd bf       	out	0x3d, r28	; 61
  f0:	00 e0       	ldi	r16, 0x00	; 0
  f2:	0c bf       	out	0x3c, r16	; 60

000000f4 <__do_copy_data>:
  f4:	12 e0       	ldi	r17, 0x02	; 2
  f6:	a0 e0       	ldi	r26, 0x00	; 0
  f8:	b2 e0       	ldi	r27, 0x02	; 2
  fa:	ec ed       	ldi	r30, 0xDC	; 220
  fc:	ff e0       	ldi	r31, 0x0F	; 15
  fe:	00 e0       	ldi	r16, 0x00	; 0
 100:	0b bf       	out	0x3b, r16	; 59
 102:	02 c0       	rjmp	.+4      	; 0x108 <__do_copy_data+0x14>
 104:	07 90       	elpm	r0, Z+
 106:	0d 92       	st	X+, r0
 108:	aa 34       	cpi	r26, 0x4A	; 74
 10a:	b1 07       	cpc	r27, r17
 10c:	d9 f7       	brne	.-10     	; 0x104 <__do_copy_data+0x10>

0000010e <__do_clear_bss>:
 10e:	22 e0       	ldi	r18, 0x02	; 2
 110:	aa e4       	ldi	r26, 0x4A	; 74
 112:	b2 e0       	ldi	r27, 0x02	; 2
 114:	01 c0       	rjmp	.+2      	; 0x118 <.do_clear_bss_start>

00000116 <.do_clear_bss_loop>:
 116:	1d 92       	st	X+, r1

00000118 <.do_clear_bss_start>:
 118:	a1 3b       	cpi	r26, 0xB1	; 177
 11a:	b2 07       	cpc	r27, r18
 11c:	e1 f7       	brne	.-8      	; 0x116 <.do_clear_bss_loop>
 11e:	e5 d5       	rcall	.+3018   	; 0xcea <main>
 120:	5b c7       	rjmp	.+3766   	; 0xfd8 <_exit>

00000122 <__bad_interrupt>:
 122:	6e cf       	rjmp	.-292    	; 0x0 <__vectors>

00000124 <lcd_set_4bit>:
				pickSort(arm0, ct % 2);
			else	pickSort(arm1, ct % 2);
			ct = adj;
	}
	adj = adjCount(ct);
}
 124:	86 e6       	ldi	r24, 0x66	; 102
 126:	9e e0       	ldi	r25, 0x0E	; 14
 128:	01 97       	sbiw	r24, 0x01	; 1
 12a:	f1 f7       	brne	.-4      	; 0x128 <lcd_set_4bit+0x4>
 12c:	00 00       	nop
 12e:	40 98       	cbi	0x08, 0	; 8
 130:	41 98       	cbi	0x08, 1	; 8
 132:	80 e3       	ldi	r24, 0x30	; 48
 134:	88 b9       	out	0x08, r24	; 8
 136:	42 9a       	sbi	0x08, 2	; 8
 138:	8f ef       	ldi	r24, 0xFF	; 255
 13a:	97 e4       	ldi	r25, 0x47	; 71
 13c:	01 97       	sbiw	r24, 0x01	; 1
 13e:	f1 f7       	brne	.-4      	; 0x13c <lcd_set_4bit+0x18>
 140:	00 c0       	rjmp	.+0      	; 0x142 <lcd_set_4bit+0x1e>
 142:	00 00       	nop
 144:	42 98       	cbi	0x08, 2	; 8
 146:	86 e6       	ldi	r24, 0x66	; 102
 148:	9e e0       	ldi	r25, 0x0E	; 14
 14a:	01 97       	sbiw	r24, 0x01	; 1
 14c:	f1 f7       	brne	.-4      	; 0x14a <lcd_set_4bit+0x26>
 14e:	00 00       	nop
 150:	40 98       	cbi	0x08, 0	; 8
 152:	41 98       	cbi	0x08, 1	; 8
 154:	80 e3       	ldi	r24, 0x30	; 48
 156:	88 b9       	out	0x08, r24	; 8
 158:	42 9a       	sbi	0x08, 2	; 8
 15a:	8f ef       	ldi	r24, 0xFF	; 255
 15c:	97 e4       	ldi	r25, 0x47	; 71
 15e:	01 97       	sbiw	r24, 0x01	; 1
 160:	f1 f7       	brne	.-4      	; 0x15e <lcd_set_4bit+0x3a>
 162:	00 c0       	rjmp	.+0      	; 0x164 <lcd_set_4bit+0x40>
 164:	00 00       	nop
 166:	42 98       	cbi	0x08, 2	; 8
 168:	86 e6       	ldi	r24, 0x66	; 102
 16a:	9e e0       	ldi	r25, 0x0E	; 14
 16c:	01 97       	sbiw	r24, 0x01	; 1
 16e:	f1 f7       	brne	.-4      	; 0x16c <lcd_set_4bit+0x48>
 170:	00 00       	nop
 172:	40 98       	cbi	0x08, 0	; 8
 174:	41 98       	cbi	0x08, 1	; 8
 176:	80 e3       	ldi	r24, 0x30	; 48
 178:	88 b9       	out	0x08, r24	; 8
 17a:	42 9a       	sbi	0x08, 2	; 8
 17c:	8f ef       	ldi	r24, 0xFF	; 255
 17e:	97 e4       	ldi	r25, 0x47	; 71
 180:	01 97       	sbiw	r24, 0x01	; 1
 182:	f1 f7       	brne	.-4      	; 0x180 <lcd_set_4bit+0x5c>
 184:	00 c0       	rjmp	.+0      	; 0x186 <lcd_set_4bit+0x62>
 186:	00 00       	nop
 188:	42 98       	cbi	0x08, 2	; 8
 18a:	86 e6       	ldi	r24, 0x66	; 102
 18c:	9e e0       	ldi	r25, 0x0E	; 14
 18e:	01 97       	sbiw	r24, 0x01	; 1
 190:	f1 f7       	brne	.-4      	; 0x18e <lcd_set_4bit+0x6a>
 192:	00 00       	nop
 194:	40 98       	cbi	0x08, 0	; 8
 196:	41 98       	cbi	0x08, 1	; 8
 198:	80 e2       	ldi	r24, 0x20	; 32
 19a:	88 b9       	out	0x08, r24	; 8
 19c:	42 9a       	sbi	0x08, 2	; 8
 19e:	8f ef       	ldi	r24, 0xFF	; 255
 1a0:	97 e4       	ldi	r25, 0x47	; 71
 1a2:	01 97       	sbiw	r24, 0x01	; 1
 1a4:	f1 f7       	brne	.-4      	; 0x1a2 <lcd_set_4bit+0x7e>
 1a6:	00 c0       	rjmp	.+0      	; 0x1a8 <lcd_set_4bit+0x84>
 1a8:	00 00       	nop
 1aa:	42 98       	cbi	0x08, 2	; 8
 1ac:	08 95       	ret

000001ae <lcd_wr_command>:
 1ae:	98 b1       	in	r25, 0x08	; 8
 1b0:	9f 70       	andi	r25, 0x0F	; 15
 1b2:	98 b9       	out	0x08, r25	; 8
 1b4:	98 b1       	in	r25, 0x08	; 8
 1b6:	28 2f       	mov	r18, r24
 1b8:	20 7f       	andi	r18, 0xF0	; 240
 1ba:	92 2b       	or	r25, r18
 1bc:	98 b9       	out	0x08, r25	; 8
 1be:	40 98       	cbi	0x08, 0	; 8
 1c0:	41 98       	cbi	0x08, 1	; 8
 1c2:	42 9a       	sbi	0x08, 2	; 8
 1c4:	ef ef       	ldi	r30, 0xFF	; 255
 1c6:	f7 e4       	ldi	r31, 0x47	; 71
 1c8:	31 97       	sbiw	r30, 0x01	; 1
 1ca:	f1 f7       	brne	.-4      	; 0x1c8 <lcd_wr_command+0x1a>
 1cc:	00 c0       	rjmp	.+0      	; 0x1ce <lcd_wr_command+0x20>
 1ce:	00 00       	nop
 1d0:	42 98       	cbi	0x08, 2	; 8
 1d2:	98 b1       	in	r25, 0x08	; 8
 1d4:	9f 70       	andi	r25, 0x0F	; 15
 1d6:	98 b9       	out	0x08, r25	; 8
 1d8:	98 b1       	in	r25, 0x08	; 8
 1da:	82 95       	swap	r24
 1dc:	80 7f       	andi	r24, 0xF0	; 240
 1de:	89 2b       	or	r24, r25
 1e0:	88 b9       	out	0x08, r24	; 8
 1e2:	40 98       	cbi	0x08, 0	; 8
 1e4:	41 98       	cbi	0x08, 1	; 8
 1e6:	42 9a       	sbi	0x08, 2	; 8
 1e8:	8f ef       	ldi	r24, 0xFF	; 255
 1ea:	97 e4       	ldi	r25, 0x47	; 71
 1ec:	01 97       	sbiw	r24, 0x01	; 1
 1ee:	f1 f7       	brne	.-4      	; 0x1ec <lcd_wr_command+0x3e>
 1f0:	00 c0       	rjmp	.+0      	; 0x1f2 <lcd_wr_command+0x44>
 1f2:	00 00       	nop
 1f4:	42 98       	cbi	0x08, 2	; 8
 1f6:	08 95       	ret

000001f8 <lcd_init>:
 1f8:	95 df       	rcall	.-214    	; 0x124 <lcd_set_4bit>
 1fa:	86 e6       	ldi	r24, 0x66	; 102
 1fc:	9e e0       	ldi	r25, 0x0E	; 14
 1fe:	01 97       	sbiw	r24, 0x01	; 1
 200:	f1 f7       	brne	.-4      	; 0x1fe <lcd_init+0x6>
 202:	00 00       	nop
 204:	88 e2       	ldi	r24, 0x28	; 40
 206:	d3 df       	rcall	.-90     	; 0x1ae <lcd_wr_command>
 208:	81 e0       	ldi	r24, 0x01	; 1
 20a:	d1 df       	rcall	.-94     	; 0x1ae <lcd_wr_command>
 20c:	86 e0       	ldi	r24, 0x06	; 6
 20e:	cf df       	rcall	.-98     	; 0x1ae <lcd_wr_command>
 210:	8e e0       	ldi	r24, 0x0E	; 14
 212:	cd df       	rcall	.-102    	; 0x1ae <lcd_wr_command>
 214:	80 e8       	ldi	r24, 0x80	; 128
 216:	cb cf       	rjmp	.-106    	; 0x1ae <lcd_wr_command>
 218:	08 95       	ret

0000021a <lcd_wr_char>:
 21a:	98 b1       	in	r25, 0x08	; 8
 21c:	9f 70       	andi	r25, 0x0F	; 15
 21e:	98 b9       	out	0x08, r25	; 8
 220:	98 b1       	in	r25, 0x08	; 8
 222:	28 2f       	mov	r18, r24
 224:	20 7f       	andi	r18, 0xF0	; 240
 226:	92 2b       	or	r25, r18
 228:	98 b9       	out	0x08, r25	; 8
 22a:	40 9a       	sbi	0x08, 0	; 8
 22c:	41 98       	cbi	0x08, 1	; 8
 22e:	42 9a       	sbi	0x08, 2	; 8
 230:	ef ef       	ldi	r30, 0xFF	; 255
 232:	f7 e4       	ldi	r31, 0x47	; 71
 234:	31 97       	sbiw	r30, 0x01	; 1
 236:	f1 f7       	brne	.-4      	; 0x234 <lcd_wr_char+0x1a>
 238:	00 c0       	rjmp	.+0      	; 0x23a <lcd_wr_char+0x20>
 23a:	00 00       	nop
 23c:	42 98       	cbi	0x08, 2	; 8
 23e:	98 b1       	in	r25, 0x08	; 8
 240:	9f 70       	andi	r25, 0x0F	; 15
 242:	98 b9       	out	0x08, r25	; 8
 244:	98 b1       	in	r25, 0x08	; 8
 246:	82 95       	swap	r24
 248:	80 7f       	andi	r24, 0xF0	; 240
 24a:	89 2b       	or	r24, r25
 24c:	88 b9       	out	0x08, r24	; 8
 24e:	40 9a       	sbi	0x08, 0	; 8
 250:	41 98       	cbi	0x08, 1	; 8
 252:	42 9a       	sbi	0x08, 2	; 8
 254:	8f ef       	ldi	r24, 0xFF	; 255
 256:	97 e4       	ldi	r25, 0x47	; 71
 258:	01 97       	sbiw	r24, 0x01	; 1
 25a:	f1 f7       	brne	.-4      	; 0x258 <lcd_wr_char+0x3e>
 25c:	00 c0       	rjmp	.+0      	; 0x25e <lcd_wr_char+0x44>
 25e:	00 00       	nop
 260:	42 98       	cbi	0x08, 2	; 8
 262:	08 95       	ret

00000264 <lcd_home>:
 264:	80 e8       	ldi	r24, 0x80	; 128
 266:	a3 cf       	rjmp	.-186    	; 0x1ae <lcd_wr_command>
 268:	08 95       	ret

0000026a <lcd_string>:
 26a:	cf 93       	push	r28
 26c:	df 93       	push	r29
 26e:	ec 01       	movw	r28, r24
 270:	88 81       	ld	r24, Y
 272:	88 23       	and	r24, r24
 274:	29 f0       	breq	.+10     	; 0x280 <lcd_string+0x16>
 276:	21 96       	adiw	r28, 0x01	; 1
 278:	d0 df       	rcall	.-96     	; 0x21a <lcd_wr_char>
 27a:	89 91       	ld	r24, Y+
 27c:	81 11       	cpse	r24, r1
 27e:	fc cf       	rjmp	.-8      	; 0x278 <lcd_string+0xe>
 280:	df 91       	pop	r29
 282:	cf 91       	pop	r28
 284:	08 95       	ret

00000286 <lcd_cursor>:
 286:	82 30       	cpi	r24, 0x02	; 2
 288:	69 f0       	breq	.+26     	; 0x2a4 <lcd_cursor+0x1e>
 28a:	18 f4       	brcc	.+6      	; 0x292 <lcd_cursor+0xc>
 28c:	81 30       	cpi	r24, 0x01	; 1
 28e:	31 f0       	breq	.+12     	; 0x29c <lcd_cursor+0x16>
 290:	08 95       	ret
 292:	83 30       	cpi	r24, 0x03	; 3
 294:	59 f0       	breq	.+22     	; 0x2ac <lcd_cursor+0x26>
 296:	84 30       	cpi	r24, 0x04	; 4
 298:	69 f0       	breq	.+26     	; 0x2b4 <lcd_cursor+0x2e>
 29a:	08 95       	ret
 29c:	8f e7       	ldi	r24, 0x7F	; 127
 29e:	86 0f       	add	r24, r22
 2a0:	86 cf       	rjmp	.-244    	; 0x1ae <lcd_wr_command>
 2a2:	08 95       	ret
 2a4:	8f eb       	ldi	r24, 0xBF	; 191
 2a6:	86 0f       	add	r24, r22
 2a8:	82 cf       	rjmp	.-252    	; 0x1ae <lcd_wr_command>
 2aa:	08 95       	ret
 2ac:	83 e9       	ldi	r24, 0x93	; 147
 2ae:	86 0f       	add	r24, r22
 2b0:	7e cf       	rjmp	.-260    	; 0x1ae <lcd_wr_command>
 2b2:	08 95       	ret
 2b4:	83 ed       	ldi	r24, 0xD3	; 211
 2b6:	86 0f       	add	r24, r22
 2b8:	7a cf       	rjmp	.-268    	; 0x1ae <lcd_wr_command>
 2ba:	08 95       	ret

000002bc <lcd_print>:
 2bc:	0f 93       	push	r16
 2be:	1f 93       	push	r17
 2c0:	cf 93       	push	r28
 2c2:	df 93       	push	r29
 2c4:	8a 01       	movw	r16, r20
 2c6:	e9 01       	movw	r28, r18
 2c8:	88 23       	and	r24, r24
 2ca:	11 f0       	breq	.+4      	; 0x2d0 <lcd_print+0x14>
 2cc:	61 11       	cpse	r22, r1
 2ce:	02 c0       	rjmp	.+4      	; 0x2d4 <lcd_print+0x18>
 2d0:	c9 df       	rcall	.-110    	; 0x264 <lcd_home>
 2d2:	01 c0       	rjmp	.+2      	; 0x2d6 <lcd_print+0x1a>
 2d4:	d8 df       	rcall	.-80     	; 0x286 <lcd_cursor>
 2d6:	c5 30       	cpi	r28, 0x05	; 5
 2d8:	d1 05       	cpc	r29, r1
 2da:	09 f0       	breq	.+2      	; 0x2de <lcd_print+0x22>
 2dc:	cd c0       	rjmp	.+410    	; 0x478 <lcd_print+0x1bc>
 2de:	98 01       	movw	r18, r16
 2e0:	32 95       	swap	r19
 2e2:	22 95       	swap	r18
 2e4:	2f 70       	andi	r18, 0x0F	; 15
 2e6:	23 27       	eor	r18, r19
 2e8:	3f 70       	andi	r19, 0x0F	; 15
 2ea:	23 27       	eor	r18, r19
 2ec:	a7 e4       	ldi	r26, 0x47	; 71
 2ee:	b3 e0       	ldi	r27, 0x03	; 3
 2f0:	64 d6       	rcall	.+3272   	; 0xfba <__umulhisi3>
 2f2:	96 95       	lsr	r25
 2f4:	87 95       	ror	r24
 2f6:	96 95       	lsr	r25
 2f8:	87 95       	ror	r24
 2fa:	96 95       	lsr	r25
 2fc:	87 95       	ror	r24
 2fe:	c0 96       	adiw	r24, 0x30	; 48
 300:	90 93 6b 02 	sts	0x026B, r25
 304:	80 93 6a 02 	sts	0x026A, r24
 308:	88 df       	rcall	.-240    	; 0x21a <lcd_wr_char>
 30a:	98 01       	movw	r18, r16
 30c:	36 95       	lsr	r19
 30e:	27 95       	ror	r18
 310:	36 95       	lsr	r19
 312:	27 95       	ror	r18
 314:	36 95       	lsr	r19
 316:	27 95       	ror	r18
 318:	a5 ec       	ldi	r26, 0xC5	; 197
 31a:	b0 e2       	ldi	r27, 0x20	; 32
 31c:	4e d6       	rcall	.+3228   	; 0xfba <__umulhisi3>
 31e:	ac 01       	movw	r20, r24
 320:	52 95       	swap	r21
 322:	42 95       	swap	r20
 324:	4f 70       	andi	r20, 0x0F	; 15
 326:	45 27       	eor	r20, r21
 328:	5f 70       	andi	r21, 0x0F	; 15
 32a:	45 27       	eor	r20, r21
 32c:	50 93 6f 02 	sts	0x026F, r21
 330:	40 93 6e 02 	sts	0x026E, r20
 334:	9a 01       	movw	r18, r20
 336:	ad ec       	ldi	r26, 0xCD	; 205
 338:	bc ec       	ldi	r27, 0xCC	; 204
 33a:	3f d6       	rcall	.+3198   	; 0xfba <__umulhisi3>
 33c:	96 95       	lsr	r25
 33e:	87 95       	ror	r24
 340:	96 95       	lsr	r25
 342:	87 95       	ror	r24
 344:	96 95       	lsr	r25
 346:	87 95       	ror	r24
 348:	9c 01       	movw	r18, r24
 34a:	22 0f       	add	r18, r18
 34c:	33 1f       	adc	r19, r19
 34e:	88 0f       	add	r24, r24
 350:	99 1f       	adc	r25, r25
 352:	88 0f       	add	r24, r24
 354:	99 1f       	adc	r25, r25
 356:	88 0f       	add	r24, r24
 358:	99 1f       	adc	r25, r25
 35a:	82 0f       	add	r24, r18
 35c:	93 1f       	adc	r25, r19
 35e:	48 1b       	sub	r20, r24
 360:	59 0b       	sbc	r21, r25
 362:	ca 01       	movw	r24, r20
 364:	c0 96       	adiw	r24, 0x30	; 48
 366:	90 93 b0 02 	sts	0x02B0, r25
 36a:	80 93 af 02 	sts	0x02AF, r24
 36e:	55 df       	rcall	.-342    	; 0x21a <lcd_wr_char>
 370:	04 c0       	rjmp	.+8      	; 0x37a <lcd_print+0xbe>
 372:	c3 30       	cpi	r28, 0x03	; 3
 374:	d1 05       	cpc	r29, r1
 376:	09 f0       	breq	.+2      	; 0x37a <lcd_print+0xbe>
 378:	84 c0       	rjmp	.+264    	; 0x482 <lcd_print+0x1c6>
 37a:	98 01       	movw	r18, r16
 37c:	36 95       	lsr	r19
 37e:	27 95       	ror	r18
 380:	36 95       	lsr	r19
 382:	27 95       	ror	r18
 384:	ab e7       	ldi	r26, 0x7B	; 123
 386:	b4 e1       	ldi	r27, 0x14	; 20
 388:	18 d6       	rcall	.+3120   	; 0xfba <__umulhisi3>
 38a:	ac 01       	movw	r20, r24
 38c:	56 95       	lsr	r21
 38e:	47 95       	ror	r20
 390:	50 93 6f 02 	sts	0x026F, r21
 394:	40 93 6e 02 	sts	0x026E, r20
 398:	9a 01       	movw	r18, r20
 39a:	ad ec       	ldi	r26, 0xCD	; 205
 39c:	bc ec       	ldi	r27, 0xCC	; 204
 39e:	0d d6       	rcall	.+3098   	; 0xfba <__umulhisi3>
 3a0:	96 95       	lsr	r25
 3a2:	87 95       	ror	r24
 3a4:	96 95       	lsr	r25
 3a6:	87 95       	ror	r24
 3a8:	96 95       	lsr	r25
 3aa:	87 95       	ror	r24
 3ac:	9c 01       	movw	r18, r24
 3ae:	22 0f       	add	r18, r18
 3b0:	33 1f       	adc	r19, r19
 3b2:	88 0f       	add	r24, r24
 3b4:	99 1f       	adc	r25, r25
 3b6:	88 0f       	add	r24, r24
 3b8:	99 1f       	adc	r25, r25
 3ba:	88 0f       	add	r24, r24
 3bc:	99 1f       	adc	r25, r25
 3be:	82 0f       	add	r24, r18
 3c0:	93 1f       	adc	r25, r19
 3c2:	48 1b       	sub	r20, r24
 3c4:	59 0b       	sbc	r21, r25
 3c6:	ca 01       	movw	r24, r20
 3c8:	c0 96       	adiw	r24, 0x30	; 48
 3ca:	90 93 a6 02 	sts	0x02A6, r25
 3ce:	80 93 a5 02 	sts	0x02A5, r24
 3d2:	23 df       	rcall	.-442    	; 0x21a <lcd_wr_char>
 3d4:	98 01       	movw	r18, r16
 3d6:	ad ec       	ldi	r26, 0xCD	; 205
 3d8:	bc ec       	ldi	r27, 0xCC	; 204
 3da:	ef d5       	rcall	.+3038   	; 0xfba <__umulhisi3>
 3dc:	ac 01       	movw	r20, r24
 3de:	56 95       	lsr	r21
 3e0:	47 95       	ror	r20
 3e2:	56 95       	lsr	r21
 3e4:	47 95       	ror	r20
 3e6:	56 95       	lsr	r21
 3e8:	47 95       	ror	r20
 3ea:	50 93 6f 02 	sts	0x026F, r21
 3ee:	40 93 6e 02 	sts	0x026E, r20
 3f2:	9a 01       	movw	r18, r20
 3f4:	e2 d5       	rcall	.+3012   	; 0xfba <__umulhisi3>
 3f6:	96 95       	lsr	r25
 3f8:	87 95       	ror	r24
 3fa:	96 95       	lsr	r25
 3fc:	87 95       	ror	r24
 3fe:	96 95       	lsr	r25
 400:	87 95       	ror	r24
 402:	9c 01       	movw	r18, r24
 404:	22 0f       	add	r18, r18
 406:	33 1f       	adc	r19, r19
 408:	88 0f       	add	r24, r24
 40a:	99 1f       	adc	r25, r25
 40c:	88 0f       	add	r24, r24
 40e:	99 1f       	adc	r25, r25
 410:	88 0f       	add	r24, r24
 412:	99 1f       	adc	r25, r25
 414:	82 0f       	add	r24, r18
 416:	93 1f       	adc	r25, r19
 418:	48 1b       	sub	r20, r24
 41a:	59 0b       	sbc	r21, r25
 41c:	ca 01       	movw	r24, r20
 41e:	c0 96       	adiw	r24, 0x30	; 48
 420:	90 93 80 02 	sts	0x0280, r25
 424:	80 93 7f 02 	sts	0x027F, r24
 428:	f8 de       	rcall	.-528    	; 0x21a <lcd_wr_char>
 42a:	03 c0       	rjmp	.+6      	; 0x432 <lcd_print+0x176>
 42c:	c1 30       	cpi	r28, 0x01	; 1
 42e:	d1 05       	cpc	r29, r1
 430:	f1 f4       	brne	.+60     	; 0x46e <lcd_print+0x1b2>
 432:	98 01       	movw	r18, r16
 434:	ad ec       	ldi	r26, 0xCD	; 205
 436:	bc ec       	ldi	r27, 0xCC	; 204
 438:	c0 d5       	rcall	.+2944   	; 0xfba <__umulhisi3>
 43a:	96 95       	lsr	r25
 43c:	87 95       	ror	r24
 43e:	96 95       	lsr	r25
 440:	87 95       	ror	r24
 442:	96 95       	lsr	r25
 444:	87 95       	ror	r24
 446:	9c 01       	movw	r18, r24
 448:	22 0f       	add	r18, r18
 44a:	33 1f       	adc	r19, r19
 44c:	88 0f       	add	r24, r24
 44e:	99 1f       	adc	r25, r25
 450:	88 0f       	add	r24, r24
 452:	99 1f       	adc	r25, r25
 454:	88 0f       	add	r24, r24
 456:	99 1f       	adc	r25, r25
 458:	82 0f       	add	r24, r18
 45a:	93 1f       	adc	r25, r19
 45c:	08 1b       	sub	r16, r24
 45e:	19 0b       	sbc	r17, r25
 460:	c8 01       	movw	r24, r16
 462:	c0 96       	adiw	r24, 0x30	; 48
 464:	90 93 ae 02 	sts	0x02AE, r25
 468:	80 93 ad 02 	sts	0x02AD, r24
 46c:	d6 de       	rcall	.-596    	; 0x21a <lcd_wr_char>
 46e:	26 97       	sbiw	r28, 0x06	; 6
 470:	64 f0       	brlt	.+24     	; 0x48a <lcd_print+0x1ce>
 472:	85 e4       	ldi	r24, 0x45	; 69
 474:	d2 de       	rcall	.-604    	; 0x21a <lcd_wr_char>
 476:	09 c0       	rjmp	.+18     	; 0x48a <lcd_print+0x1ce>
 478:	c4 30       	cpi	r28, 0x04	; 4
 47a:	d1 05       	cpc	r29, r1
 47c:	09 f0       	breq	.+2      	; 0x480 <lcd_print+0x1c4>
 47e:	79 cf       	rjmp	.-270    	; 0x372 <lcd_print+0xb6>
 480:	44 cf       	rjmp	.-376    	; 0x30a <lcd_print+0x4e>
 482:	c2 30       	cpi	r28, 0x02	; 2
 484:	d1 05       	cpc	r29, r1
 486:	91 f6       	brne	.-92     	; 0x42c <lcd_print+0x170>
 488:	a5 cf       	rjmp	.-182    	; 0x3d4 <lcd_print+0x118>
 48a:	df 91       	pop	r29
 48c:	cf 91       	pop	r28
 48e:	1f 91       	pop	r17
 490:	0f 91       	pop	r16
 492:	08 95       	ret

00000494 <timer5_init>:
 494:	e1 e2       	ldi	r30, 0x21	; 33
 496:	f1 e0       	ldi	r31, 0x01	; 1
 498:	10 82       	st	Z, r1
 49a:	8f ef       	ldi	r24, 0xFF	; 255
 49c:	80 93 25 01 	sts	0x0125, r24
 4a0:	91 e0       	ldi	r25, 0x01	; 1
 4a2:	90 93 24 01 	sts	0x0124, r25
 4a6:	10 92 29 01 	sts	0x0129, r1
 4aa:	80 93 28 01 	sts	0x0128, r24
 4ae:	10 92 2b 01 	sts	0x012B, r1
 4b2:	80 93 2a 01 	sts	0x012A, r24
 4b6:	10 92 2d 01 	sts	0x012D, r1
 4ba:	80 93 2c 01 	sts	0x012C, r24
 4be:	89 ea       	ldi	r24, 0xA9	; 169
 4c0:	80 93 20 01 	sts	0x0120, r24
 4c4:	8b e0       	ldi	r24, 0x0B	; 11
 4c6:	80 83       	st	Z, r24
 4c8:	08 95       	ret

000004ca <motion_pin_config>:
 4ca:	81 b1       	in	r24, 0x01	; 1
 4cc:	8f 60       	ori	r24, 0x0F	; 15
 4ce:	81 b9       	out	0x01, r24	; 1
 4d0:	82 b1       	in	r24, 0x02	; 2
 4d2:	80 7f       	andi	r24, 0xF0	; 240
 4d4:	82 b9       	out	0x02, r24	; 2
 4d6:	ea e0       	ldi	r30, 0x0A	; 10
 4d8:	f1 e0       	ldi	r31, 0x01	; 1
 4da:	80 81       	ld	r24, Z
 4dc:	88 61       	ori	r24, 0x18	; 24
 4de:	80 83       	st	Z, r24
 4e0:	eb e0       	ldi	r30, 0x0B	; 11
 4e2:	f1 e0       	ldi	r31, 0x01	; 1
 4e4:	80 81       	ld	r24, Z
 4e6:	88 61       	ori	r24, 0x18	; 24
 4e8:	80 83       	st	Z, r24
 4ea:	08 95       	ret

000004ec <motion_set>:
 4ec:	92 b1       	in	r25, 0x02	; 2
 4ee:	90 7f       	andi	r25, 0xF0	; 240
 4f0:	8f 70       	andi	r24, 0x0F	; 15
 4f2:	98 2b       	or	r25, r24
 4f4:	92 b9       	out	0x02, r25	; 2
 4f6:	08 95       	ret

000004f8 <forward>:
 4f8:	86 e0       	ldi	r24, 0x06	; 6
 4fa:	f8 cf       	rjmp	.-16     	; 0x4ec <motion_set>
 4fc:	08 95       	ret

000004fe <left>:
 4fe:	85 e0       	ldi	r24, 0x05	; 5
 500:	f5 cf       	rjmp	.-22     	; 0x4ec <motion_set>
 502:	08 95       	ret

00000504 <right>:
 504:	8a e0       	ldi	r24, 0x0A	; 10
 506:	f2 cf       	rjmp	.-28     	; 0x4ec <motion_set>
 508:	08 95       	ret

0000050a <stop>:
 50a:	80 e0       	ldi	r24, 0x00	; 0
 50c:	ef cf       	rjmp	.-34     	; 0x4ec <motion_set>
 50e:	08 95       	ret

00000510 <lcd_port_config>:
 510:	87 b1       	in	r24, 0x07	; 7
 512:	87 6f       	ori	r24, 0xF7	; 247
 514:	87 b9       	out	0x07, r24	; 7
 516:	88 b1       	in	r24, 0x08	; 8
 518:	80 78       	andi	r24, 0x80	; 128
 51a:	88 b9       	out	0x08, r24	; 8
 51c:	08 95       	ret

0000051e <color_sensor_pin_config>:
 51e:	8a b1       	in	r24, 0x0a	; 10
 520:	8e 6f       	ori	r24, 0xFE	; 254
 522:	8a b9       	out	0x0a, r24	; 10
 524:	58 9a       	sbi	0x0b, 0	; 11
 526:	08 95       	ret

00000528 <servo_1_free>:
 528:	83 e0       	ldi	r24, 0x03	; 3
 52a:	80 93 89 00 	sts	0x0089, r24
 52e:	8f ef       	ldi	r24, 0xFF	; 255
 530:	80 93 88 00 	sts	0x0088, r24
 534:	08 95       	ret

00000536 <servo_2_free>:
 536:	83 e0       	ldi	r24, 0x03	; 3
 538:	80 93 8b 00 	sts	0x008B, r24
 53c:	8f ef       	ldi	r24, 0xFF	; 255
 53e:	80 93 8a 00 	sts	0x008A, r24
 542:	08 95       	ret

00000544 <servo_3_free>:
 544:	83 e0       	ldi	r24, 0x03	; 3
 546:	80 93 8d 00 	sts	0x008D, r24
 54a:	8f ef       	ldi	r24, 0xFF	; 255
 54c:	80 93 8c 00 	sts	0x008C, r24
 550:	08 95       	ret

00000552 <adc_pin_config>:
 552:	10 ba       	out	0x10, r1	; 16
 554:	11 ba       	out	0x11, r1	; 17
 556:	10 92 07 01 	sts	0x0107, r1
 55a:	10 92 08 01 	sts	0x0108, r1
 55e:	08 95       	ret

00000560 <servo1_pin_config>:
 560:	25 9a       	sbi	0x04, 5	; 4
 562:	2d 9a       	sbi	0x05, 5	; 5
 564:	08 95       	ret

00000566 <servo2_pin_config>:
 566:	26 9a       	sbi	0x04, 6	; 4
 568:	2e 9a       	sbi	0x05, 6	; 5
 56a:	08 95       	ret

0000056c <servo3_pin_config>:
 56c:	27 9a       	sbi	0x04, 7	; 4
 56e:	2f 9a       	sbi	0x05, 7	; 5
 570:	08 95       	ret

00000572 <timer1_init>:
 572:	e1 e8       	ldi	r30, 0x81	; 129
 574:	f0 e0       	ldi	r31, 0x00	; 0
 576:	10 82       	st	Z, r1
 578:	8c ef       	ldi	r24, 0xFC	; 252
 57a:	80 93 85 00 	sts	0x0085, r24
 57e:	81 e0       	ldi	r24, 0x01	; 1
 580:	80 93 84 00 	sts	0x0084, r24
 584:	93 e0       	ldi	r25, 0x03	; 3
 586:	90 93 89 00 	sts	0x0089, r25
 58a:	8f ef       	ldi	r24, 0xFF	; 255
 58c:	80 93 88 00 	sts	0x0088, r24
 590:	90 93 8b 00 	sts	0x008B, r25
 594:	80 93 8a 00 	sts	0x008A, r24
 598:	90 93 8d 00 	sts	0x008D, r25
 59c:	80 93 8c 00 	sts	0x008C, r24
 5a0:	90 93 87 00 	sts	0x0087, r25
 5a4:	80 93 86 00 	sts	0x0086, r24
 5a8:	8b ea       	ldi	r24, 0xAB	; 171
 5aa:	80 93 80 00 	sts	0x0080, r24
 5ae:	10 92 82 00 	sts	0x0082, r1
 5b2:	8c e0       	ldi	r24, 0x0C	; 12
 5b4:	80 83       	st	Z, r24
 5b6:	08 95       	ret

000005b8 <port_init>:
 5b8:	ab df       	rcall	.-170    	; 0x510 <lcd_port_config>
 5ba:	cb df       	rcall	.-106    	; 0x552 <adc_pin_config>
 5bc:	3b 9a       	sbi	0x07, 3	; 7
 5be:	43 98       	cbi	0x08, 3	; 8
 5c0:	cf df       	rcall	.-98     	; 0x560 <servo1_pin_config>
 5c2:	d1 df       	rcall	.-94     	; 0x566 <servo2_pin_config>
 5c4:	d3 df       	rcall	.-90     	; 0x56c <servo3_pin_config>
 5c6:	ab cf       	rjmp	.-170    	; 0x51e <color_sensor_pin_config>
 5c8:	08 95       	ret

000005ca <ADC_Conversion>:
 5ca:	88 30       	cpi	r24, 0x08	; 8
 5cc:	18 f0       	brcs	.+6      	; 0x5d4 <ADC_Conversion+0xa>
 5ce:	98 e0       	ldi	r25, 0x08	; 8
 5d0:	90 93 7b 00 	sts	0x007B, r25
 5d4:	87 70       	andi	r24, 0x07	; 7
 5d6:	80 62       	ori	r24, 0x20	; 32
 5d8:	80 93 7c 00 	sts	0x007C, r24
 5dc:	ea e7       	ldi	r30, 0x7A	; 122
 5de:	f0 e0       	ldi	r31, 0x00	; 0
 5e0:	80 81       	ld	r24, Z
 5e2:	80 64       	ori	r24, 0x40	; 64
 5e4:	80 83       	st	Z, r24
 5e6:	80 81       	ld	r24, Z
 5e8:	84 ff       	sbrs	r24, 4
 5ea:	fd cf       	rjmp	.-6      	; 0x5e6 <ADC_Conversion+0x1c>
 5ec:	80 91 79 00 	lds	r24, 0x0079
 5f0:	ea e7       	ldi	r30, 0x7A	; 122
 5f2:	f0 e0       	ldi	r31, 0x00	; 0
 5f4:	90 81       	ld	r25, Z
 5f6:	90 61       	ori	r25, 0x10	; 16
 5f8:	90 83       	st	Z, r25
 5fa:	10 92 7b 00 	sts	0x007B, r1
 5fe:	08 95       	ret

00000600 <color_sensor_pin_interrupt_init>:
 600:	f8 94       	cli
 602:	e9 e6       	ldi	r30, 0x69	; 105
 604:	f0 e0       	ldi	r31, 0x00	; 0
 606:	80 81       	ld	r24, Z
 608:	82 60       	ori	r24, 0x02	; 2
 60a:	80 83       	st	Z, r24
 60c:	e8 9a       	sbi	0x1d, 0	; 29
 60e:	78 94       	sei
 610:	08 95       	ret

00000612 <__vector_1>:
 612:	1f 92       	push	r1
 614:	0f 92       	push	r0
 616:	0f b6       	in	r0, 0x3f	; 63
 618:	0f 92       	push	r0
 61a:	11 24       	eor	r1, r1
 61c:	8f 93       	push	r24
 61e:	9f 93       	push	r25
 620:	af 93       	push	r26
 622:	bf 93       	push	r27
 624:	80 91 4e 02 	lds	r24, 0x024E
 628:	90 91 4f 02 	lds	r25, 0x024F
 62c:	a0 91 50 02 	lds	r26, 0x0250
 630:	b0 91 51 02 	lds	r27, 0x0251
 634:	01 96       	adiw	r24, 0x01	; 1
 636:	a1 1d       	adc	r26, r1
 638:	b1 1d       	adc	r27, r1
 63a:	80 93 4e 02 	sts	0x024E, r24
 63e:	90 93 4f 02 	sts	0x024F, r25
 642:	a0 93 50 02 	sts	0x0250, r26
 646:	b0 93 51 02 	sts	0x0251, r27
 64a:	bf 91       	pop	r27
 64c:	af 91       	pop	r26
 64e:	9f 91       	pop	r25
 650:	8f 91       	pop	r24
 652:	0f 90       	pop	r0
 654:	0f be       	out	0x3f, r0	; 63
 656:	0f 90       	pop	r0
 658:	1f 90       	pop	r1
 65a:	18 95       	reti

0000065c <adc_init>:
 65c:	ea e7       	ldi	r30, 0x7A	; 122
 65e:	f0 e0       	ldi	r31, 0x00	; 0
 660:	10 82       	st	Z, r1
 662:	10 92 7b 00 	sts	0x007B, r1
 666:	80 e2       	ldi	r24, 0x20	; 32
 668:	80 93 7c 00 	sts	0x007C, r24
 66c:	80 e8       	ldi	r24, 0x80	; 128
 66e:	80 bf       	out	0x30, r24	; 48
 670:	86 e8       	ldi	r24, 0x86	; 134
 672:	80 83       	st	Z, r24
 674:	08 95       	ret

00000676 <color_sensor_scaling>:
 676:	5c 9a       	sbi	0x0b, 4	; 11
 678:	5d 9a       	sbi	0x0b, 5	; 11
 67a:	08 95       	ret

0000067c <left_encoder_pin_config>:
 67c:	6c 98       	cbi	0x0d, 4	; 13
 67e:	74 9a       	sbi	0x0e, 4	; 14
 680:	08 95       	ret

00000682 <right_encoder_pin_config>:
 682:	6d 98       	cbi	0x0d, 5	; 13
 684:	75 9a       	sbi	0x0e, 5	; 14
 686:	08 95       	ret

00000688 <port_init_poz>:
 688:	20 df       	rcall	.-448    	; 0x4ca <motion_pin_config>
 68a:	f8 df       	rcall	.-16     	; 0x67c <left_encoder_pin_config>
 68c:	fa cf       	rjmp	.-12     	; 0x682 <right_encoder_pin_config>
 68e:	08 95       	ret

00000690 <left_position_encoder_interrupt_init>:
 690:	f8 94       	cli
 692:	ea e6       	ldi	r30, 0x6A	; 106
 694:	f0 e0       	ldi	r31, 0x00	; 0
 696:	80 81       	ld	r24, Z
 698:	82 60       	ori	r24, 0x02	; 2
 69a:	80 83       	st	Z, r24
 69c:	ec 9a       	sbi	0x1d, 4	; 29
 69e:	78 94       	sei
 6a0:	08 95       	ret

000006a2 <right_position_encoder_interrupt_init>:
 6a2:	f8 94       	cli
 6a4:	ea e6       	ldi	r30, 0x6A	; 106
 6a6:	f0 e0       	ldi	r31, 0x00	; 0
 6a8:	80 81       	ld	r24, Z
 6aa:	88 60       	ori	r24, 0x08	; 8
 6ac:	80 83       	st	Z, r24
 6ae:	ed 9a       	sbi	0x1d, 5	; 29
 6b0:	78 94       	sei
 6b2:	08 95       	ret

000006b4 <__vector_6>:
 6b4:	1f 92       	push	r1
 6b6:	0f 92       	push	r0
 6b8:	0f b6       	in	r0, 0x3f	; 63
 6ba:	0f 92       	push	r0
 6bc:	11 24       	eor	r1, r1
 6be:	8f 93       	push	r24
 6c0:	9f 93       	push	r25
 6c2:	af 93       	push	r26
 6c4:	bf 93       	push	r27
 6c6:	80 91 52 02 	lds	r24, 0x0252
 6ca:	90 91 53 02 	lds	r25, 0x0253
 6ce:	a0 91 54 02 	lds	r26, 0x0254
 6d2:	b0 91 55 02 	lds	r27, 0x0255
 6d6:	01 96       	adiw	r24, 0x01	; 1
 6d8:	a1 1d       	adc	r26, r1
 6da:	b1 1d       	adc	r27, r1
 6dc:	80 93 52 02 	sts	0x0252, r24
 6e0:	90 93 53 02 	sts	0x0253, r25
 6e4:	a0 93 54 02 	sts	0x0254, r26
 6e8:	b0 93 55 02 	sts	0x0255, r27
 6ec:	bf 91       	pop	r27
 6ee:	af 91       	pop	r26
 6f0:	9f 91       	pop	r25
 6f2:	8f 91       	pop	r24
 6f4:	0f 90       	pop	r0
 6f6:	0f be       	out	0x3f, r0	; 63
 6f8:	0f 90       	pop	r0
 6fa:	1f 90       	pop	r1
 6fc:	18 95       	reti

000006fe <__vector_5>:
 6fe:	1f 92       	push	r1
 700:	0f 92       	push	r0
 702:	0f b6       	in	r0, 0x3f	; 63
 704:	0f 92       	push	r0
 706:	11 24       	eor	r1, r1
 708:	8f 93       	push	r24
 70a:	9f 93       	push	r25
 70c:	af 93       	push	r26
 70e:	bf 93       	push	r27
 710:	80 91 56 02 	lds	r24, 0x0256
 714:	90 91 57 02 	lds	r25, 0x0257
 718:	a0 91 58 02 	lds	r26, 0x0258
 71c:	b0 91 59 02 	lds	r27, 0x0259
 720:	01 96       	adiw	r24, 0x01	; 1
 722:	a1 1d       	adc	r26, r1
 724:	b1 1d       	adc	r27, r1
 726:	80 93 56 02 	sts	0x0256, r24
 72a:	90 93 57 02 	sts	0x0257, r25
 72e:	a0 93 58 02 	sts	0x0258, r26
 732:	b0 93 59 02 	sts	0x0259, r27
 736:	bf 91       	pop	r27
 738:	af 91       	pop	r26
 73a:	9f 91       	pop	r25
 73c:	8f 91       	pop	r24
 73e:	0f 90       	pop	r0
 740:	0f be       	out	0x3f, r0	; 63
 742:	0f 90       	pop	r0
 744:	1f 90       	pop	r1
 746:	18 95       	reti

00000748 <linear_distance_mm>:
 748:	0f 93       	push	r16
 74a:	1f 93       	push	r17
 74c:	bc 01       	movw	r22, r24
 74e:	80 e0       	ldi	r24, 0x00	; 0
 750:	90 e0       	ldi	r25, 0x00	; 0
 752:	a5 d3       	rcall	.+1866   	; 0xe9e <__floatunsisf>
 754:	25 ee       	ldi	r18, 0xE5	; 229
 756:	30 ed       	ldi	r19, 0xD0	; 208
 758:	4a ea       	ldi	r20, 0xAA	; 170
 75a:	50 e4       	ldi	r21, 0x40	; 64
 75c:	0c d3       	rcall	.+1560   	; 0xd76 <__divsf3>
 75e:	73 d3       	rcall	.+1766   	; 0xe46 <__fixunssfsi>
 760:	10 92 52 02 	sts	0x0252, r1
 764:	10 92 53 02 	sts	0x0253, r1
 768:	10 92 54 02 	sts	0x0254, r1
 76c:	10 92 55 02 	sts	0x0255, r1
 770:	00 91 52 02 	lds	r16, 0x0252
 774:	10 91 53 02 	lds	r17, 0x0253
 778:	20 91 54 02 	lds	r18, 0x0254
 77c:	30 91 55 02 	lds	r19, 0x0255
 780:	60 17       	cp	r22, r16
 782:	71 07       	cpc	r23, r17
 784:	82 07       	cpc	r24, r18
 786:	93 07       	cpc	r25, r19
 788:	98 f7       	brcc	.-26     	; 0x770 <linear_distance_mm+0x28>
 78a:	bf de       	rcall	.-642    	; 0x50a <stop>
 78c:	1f 91       	pop	r17
 78e:	0f 91       	pop	r16
 790:	08 95       	ret

00000792 <forward_mm>:
 792:	cf 93       	push	r28
 794:	df 93       	push	r29
 796:	ec 01       	movw	r28, r24
 798:	af de       	rcall	.-674    	; 0x4f8 <forward>
 79a:	ce 01       	movw	r24, r28
 79c:	d5 df       	rcall	.-86     	; 0x748 <linear_distance_mm>
 79e:	df 91       	pop	r29
 7a0:	cf 91       	pop	r28
 7a2:	08 95       	ret

000007a4 <init_devices>:
 7a4:	f8 94       	cli
 7a6:	70 df       	rcall	.-288    	; 0x688 <port_init_poz>
 7a8:	73 df       	rcall	.-282    	; 0x690 <left_position_encoder_interrupt_init>
 7aa:	7b df       	rcall	.-266    	; 0x6a2 <right_position_encoder_interrupt_init>
 7ac:	05 df       	rcall	.-502    	; 0x5b8 <port_init>
 7ae:	28 df       	rcall	.-432    	; 0x600 <color_sensor_pin_interrupt_init>
 7b0:	55 df       	rcall	.-342    	; 0x65c <adc_init>
 7b2:	8b de       	rcall	.-746    	; 0x4ca <motion_pin_config>
 7b4:	6f de       	rcall	.-802    	; 0x494 <timer5_init>
 7b6:	dd de       	rcall	.-582    	; 0x572 <timer1_init>
 7b8:	78 94       	sei
 7ba:	08 95       	ret

000007bc <set_color>:
 7bc:	83 e0       	ldi	r24, 0x03	; 3
 7be:	05 df       	rcall	.-502    	; 0x5ca <ADC_Conversion>
 7c0:	80 93 4d 02 	sts	0x024D, r24
 7c4:	82 e0       	ldi	r24, 0x02	; 2
 7c6:	01 df       	rcall	.-510    	; 0x5ca <ADC_Conversion>
 7c8:	80 93 4c 02 	sts	0x024C, r24
 7cc:	81 e0       	ldi	r24, 0x01	; 1
 7ce:	fd de       	rcall	.-518    	; 0x5ca <ADC_Conversion>
 7d0:	80 93 4b 02 	sts	0x024B, r24
 7d4:	08 95       	ret

000007d6 <lower>:
 7d6:	81 30       	cpi	r24, 0x01	; 1
 7d8:	31 f4       	brne	.+12     	; 0x7e6 <lower+0x10>
 7da:	10 92 8b 00 	sts	0x008B, r1
 7de:	8d e3       	ldi	r24, 0x3D	; 61
 7e0:	80 93 8a 00 	sts	0x008A, r24
 7e4:	08 95       	ret
 7e6:	10 92 8b 00 	sts	0x008B, r1
 7ea:	83 e6       	ldi	r24, 0x63	; 99
 7ec:	80 93 8a 00 	sts	0x008A, r24
 7f0:	08 95       	ret

000007f2 <elevate>:
 7f2:	10 92 8b 00 	sts	0x008B, r1
 7f6:	83 e5       	ldi	r24, 0x53	; 83
 7f8:	80 93 8a 00 	sts	0x008A, r24
 7fc:	2f ef       	ldi	r18, 0xFF	; 255
 7fe:	8f ef       	ldi	r24, 0xFF	; 255
 800:	9a e1       	ldi	r25, 0x1A	; 26
 802:	21 50       	subi	r18, 0x01	; 1
 804:	80 40       	sbci	r24, 0x00	; 0
 806:	90 40       	sbci	r25, 0x00	; 0
 808:	e1 f7       	brne	.-8      	; 0x802 <elevate+0x10>
 80a:	00 c0       	rjmp	.+0      	; 0x80c <elevate+0x1a>
 80c:	00 00       	nop
 80e:	93 ce       	rjmp	.-730    	; 0x536 <servo_2_free>
 810:	08 95       	ret

00000812 <open>:
 812:	81 11       	cpse	r24, r1
 814:	10 c0       	rjmp	.+32     	; 0x836 <open+0x24>
 816:	10 92 8d 00 	sts	0x008D, r1
 81a:	83 e2       	ldi	r24, 0x23	; 35
 81c:	80 93 8c 00 	sts	0x008C, r24
 820:	2f ef       	ldi	r18, 0xFF	; 255
 822:	8f e7       	ldi	r24, 0x7F	; 127
 824:	96 e1       	ldi	r25, 0x16	; 22
 826:	21 50       	subi	r18, 0x01	; 1
 828:	80 40       	sbci	r24, 0x00	; 0
 82a:	90 40       	sbci	r25, 0x00	; 0
 82c:	e1 f7       	brne	.-8      	; 0x826 <open+0x14>
 82e:	00 c0       	rjmp	.+0      	; 0x830 <open+0x1e>
 830:	00 00       	nop
 832:	88 ce       	rjmp	.-752    	; 0x544 <servo_3_free>
 834:	08 95       	ret
 836:	10 92 89 00 	sts	0x0089, r1
 83a:	83 e2       	ldi	r24, 0x23	; 35
 83c:	80 93 88 00 	sts	0x0088, r24
 840:	2f ef       	ldi	r18, 0xFF	; 255
 842:	8f e7       	ldi	r24, 0x7F	; 127
 844:	96 e1       	ldi	r25, 0x16	; 22
 846:	21 50       	subi	r18, 0x01	; 1
 848:	80 40       	sbci	r24, 0x00	; 0
 84a:	90 40       	sbci	r25, 0x00	; 0
 84c:	e1 f7       	brne	.-8      	; 0x846 <open+0x34>
 84e:	00 c0       	rjmp	.+0      	; 0x850 <open+0x3e>
 850:	00 00       	nop
 852:	6a ce       	rjmp	.-812    	; 0x528 <servo_1_free>
 854:	08 95       	ret

00000856 <close>:
 856:	81 11       	cpse	r24, r1
 858:	06 c0       	rjmp	.+12     	; 0x866 <close+0x10>
 85a:	10 92 8d 00 	sts	0x008D, r1
 85e:	88 e3       	ldi	r24, 0x38	; 56
 860:	80 93 8c 00 	sts	0x008C, r24
 864:	08 95       	ret
 866:	81 30       	cpi	r24, 0x01	; 1
 868:	29 f4       	brne	.+10     	; 0x874 <close+0x1e>
 86a:	10 92 89 00 	sts	0x0089, r1
 86e:	83 e4       	ldi	r24, 0x43	; 67
 870:	80 93 88 00 	sts	0x0088, r24
 874:	08 95       	ret

00000876 <lcd>:
 876:	cf 93       	push	r28
 878:	df 93       	push	r29
 87a:	ec 01       	movw	r28, r24
 87c:	81 e0       	ldi	r24, 0x01	; 1
 87e:	97 dc       	rcall	.-1746   	; 0x1ae <lcd_wr_command>
 880:	61 e0       	ldi	r22, 0x01	; 1
 882:	81 e0       	ldi	r24, 0x01	; 1
 884:	00 dd       	rcall	.-1536   	; 0x286 <lcd_cursor>
 886:	ce 01       	movw	r24, r28
 888:	f0 dc       	rcall	.-1568   	; 0x26a <lcd_string>
 88a:	2f ef       	ldi	r18, 0xFF	; 255
 88c:	8f ef       	ldi	r24, 0xFF	; 255
 88e:	9c e2       	ldi	r25, 0x2C	; 44
 890:	21 50       	subi	r18, 0x01	; 1
 892:	80 40       	sbci	r24, 0x00	; 0
 894:	90 40       	sbci	r25, 0x00	; 0
 896:	e1 f7       	brne	.-8      	; 0x890 <lcd+0x1a>
 898:	00 c0       	rjmp	.+0      	; 0x89a <lcd+0x24>
 89a:	00 00       	nop
 89c:	df 91       	pop	r29
 89e:	cf 91       	pop	r28
 8a0:	08 95       	ret

000008a2 <setIndicatorAndColor>:
 8a2:	cf 93       	push	r28
 8a4:	df 93       	push	r29
 8a6:	c3 e9       	ldi	r28, 0x93	; 147
 8a8:	d2 e0       	ldi	r29, 0x02	; 2
 8aa:	e1 e8       	ldi	r30, 0x81	; 129
 8ac:	f2 e0       	ldi	r31, 0x02	; 2
 8ae:	aa e5       	ldi	r26, 0x5A	; 90
 8b0:	b2 e0       	ldi	r27, 0x02	; 2
 8b2:	80 e0       	ldi	r24, 0x00	; 0
 8b4:	90 e0       	ldi	r25, 0x00	; 0
 8b6:	2e ef       	ldi	r18, 0xFE	; 254
 8b8:	3f ef       	ldi	r19, 0xFF	; 255
 8ba:	89 93       	st	Y+, r24
 8bc:	99 93       	st	Y+, r25
 8be:	33 83       	std	Z+3, r19	; 0x03
 8c0:	22 83       	std	Z+2, r18	; 0x02
 8c2:	31 83       	std	Z+1, r19	; 0x01
 8c4:	20 83       	st	Z, r18
 8c6:	1d 92       	st	X+, r1
 8c8:	1d 92       	st	X+, r1
 8ca:	01 96       	adiw	r24, 0x01	; 1
 8cc:	34 96       	adiw	r30, 0x04	; 4
 8ce:	84 30       	cpi	r24, 0x04	; 4
 8d0:	91 05       	cpc	r25, r1
 8d2:	99 f7       	brne	.-26     	; 0x8ba <setIndicatorAndColor+0x18>
 8d4:	e0 91 93 02 	lds	r30, 0x0293
 8d8:	f0 91 94 02 	lds	r31, 0x0294
 8dc:	ee 0f       	add	r30, r30
 8de:	ff 1f       	adc	r31, r31
 8e0:	e5 56       	subi	r30, 0x65	; 101
 8e2:	fd 4f       	sbci	r31, 0xFD	; 253
 8e4:	11 82       	std	Z+1, r1	; 0x01
 8e6:	10 82       	st	Z, r1
 8e8:	e0 91 95 02 	lds	r30, 0x0295
 8ec:	f0 91 96 02 	lds	r31, 0x0296
 8f0:	ee 0f       	add	r30, r30
 8f2:	ff 1f       	adc	r31, r31
 8f4:	e5 56       	subi	r30, 0x65	; 101
 8f6:	fd 4f       	sbci	r31, 0xFD	; 253
 8f8:	81 e0       	ldi	r24, 0x01	; 1
 8fa:	90 e0       	ldi	r25, 0x00	; 0
 8fc:	91 83       	std	Z+1, r25	; 0x01
 8fe:	80 83       	st	Z, r24
 900:	e0 91 97 02 	lds	r30, 0x0297
 904:	f0 91 98 02 	lds	r31, 0x0298
 908:	ee 0f       	add	r30, r30
 90a:	ff 1f       	adc	r31, r31
 90c:	e5 56       	subi	r30, 0x65	; 101
 90e:	fd 4f       	sbci	r31, 0xFD	; 253
 910:	82 e0       	ldi	r24, 0x02	; 2
 912:	90 e0       	ldi	r25, 0x00	; 0
 914:	91 83       	std	Z+1, r25	; 0x01
 916:	80 83       	st	Z, r24
 918:	e0 91 99 02 	lds	r30, 0x0299
 91c:	f0 91 9a 02 	lds	r31, 0x029A
 920:	ee 0f       	add	r30, r30
 922:	ff 1f       	adc	r31, r31
 924:	e5 56       	subi	r30, 0x65	; 101
 926:	fd 4f       	sbci	r31, 0xFD	; 253
 928:	83 e0       	ldi	r24, 0x03	; 3
 92a:	90 e0       	ldi	r25, 0x00	; 0
 92c:	91 83       	std	Z+1, r25	; 0x01
 92e:	80 83       	st	Z, r24
 930:	8f ef       	ldi	r24, 0xFF	; 255
 932:	9f ef       	ldi	r25, 0xFF	; 255
 934:	90 93 7c 02 	sts	0x027C, r25
 938:	80 93 7b 02 	sts	0x027B, r24
 93c:	90 93 7a 02 	sts	0x027A, r25
 940:	80 93 79 02 	sts	0x0279, r24
 944:	90 93 aa 02 	sts	0x02AA, r25
 948:	80 93 a9 02 	sts	0x02A9, r24
 94c:	90 93 a8 02 	sts	0x02A8, r25
 950:	80 93 a7 02 	sts	0x02A7, r24
 954:	df 91       	pop	r29
 956:	cf 91       	pop	r28
 958:	08 95       	ret

0000095a <pick>:
 95a:	cf 93       	push	r28
 95c:	df 93       	push	r29
 95e:	ec 01       	movw	r28, r24
 960:	3a df       	rcall	.-396    	; 0x7d6 <lower>
 962:	2f ef       	ldi	r18, 0xFF	; 255
 964:	8f ef       	ldi	r24, 0xFF	; 255
 966:	9c e2       	ldi	r25, 0x2C	; 44
 968:	21 50       	subi	r18, 0x01	; 1
 96a:	80 40       	sbci	r24, 0x00	; 0
 96c:	90 40       	sbci	r25, 0x00	; 0
 96e:	e1 f7       	brne	.-8      	; 0x968 <pick+0xe>
 970:	00 c0       	rjmp	.+0      	; 0x972 <pick+0x18>
 972:	00 00       	nop
 974:	8c 2f       	mov	r24, r28
 976:	6f df       	rcall	.-290    	; 0x856 <close>
 978:	2f ef       	ldi	r18, 0xFF	; 255
 97a:	8f ef       	ldi	r24, 0xFF	; 255
 97c:	96 e8       	ldi	r25, 0x86	; 134
 97e:	21 50       	subi	r18, 0x01	; 1
 980:	80 40       	sbci	r24, 0x00	; 0
 982:	90 40       	sbci	r25, 0x00	; 0
 984:	e1 f7       	brne	.-8      	; 0x97e <pick+0x24>
 986:	00 c0       	rjmp	.+0      	; 0x988 <pick+0x2e>
 988:	00 00       	nop
 98a:	33 df       	rcall	.-410    	; 0x7f2 <elevate>
 98c:	2f ef       	ldi	r18, 0xFF	; 255
 98e:	8f ef       	ldi	r24, 0xFF	; 255
 990:	9c e2       	ldi	r25, 0x2C	; 44
 992:	21 50       	subi	r18, 0x01	; 1
 994:	80 40       	sbci	r24, 0x00	; 0
 996:	90 40       	sbci	r25, 0x00	; 0
 998:	e1 f7       	brne	.-8      	; 0x992 <pick+0x38>
 99a:	00 c0       	rjmp	.+0      	; 0x99c <pick+0x42>
 99c:	00 00       	nop
 99e:	80 91 02 02 	lds	r24, 0x0202
 9a2:	90 91 03 02 	lds	r25, 0x0203
 9a6:	01 97       	sbiw	r24, 0x01	; 1
 9a8:	90 93 03 02 	sts	0x0203, r25
 9ac:	80 93 02 02 	sts	0x0202, r24
 9b0:	cd 2b       	or	r28, r29
 9b2:	21 f4       	brne	.+8      	; 0x9bc <pick+0x62>
 9b4:	8e e0       	ldi	r24, 0x0E	; 14
 9b6:	92 e0       	ldi	r25, 0x02	; 2
 9b8:	5e df       	rcall	.-324    	; 0x876 <lcd>
 9ba:	03 c0       	rjmp	.+6      	; 0x9c2 <pick+0x68>
 9bc:	88 e1       	ldi	r24, 0x18	; 24
 9be:	92 e0       	ldi	r25, 0x02	; 2
 9c0:	5a df       	rcall	.-332    	; 0x876 <lcd>
 9c2:	2f ef       	ldi	r18, 0xFF	; 255
 9c4:	8f ef       	ldi	r24, 0xFF	; 255
 9c6:	9c e2       	ldi	r25, 0x2C	; 44
 9c8:	21 50       	subi	r18, 0x01	; 1
 9ca:	80 40       	sbci	r24, 0x00	; 0
 9cc:	90 40       	sbci	r25, 0x00	; 0
 9ce:	e1 f7       	brne	.-8      	; 0x9c8 <pick+0x6e>
 9d0:	00 c0       	rjmp	.+0      	; 0x9d2 <pick+0x78>
 9d2:	00 00       	nop
 9d4:	df 91       	pop	r29
 9d6:	cf 91       	pop	r28
 9d8:	08 95       	ret

000009da <drop>:
 9da:	cf 93       	push	r28
 9dc:	df 93       	push	r29
 9de:	ec 01       	movw	r28, r24
 9e0:	fa de       	rcall	.-524    	; 0x7d6 <lower>
 9e2:	2f ef       	ldi	r18, 0xFF	; 255
 9e4:	8f ef       	ldi	r24, 0xFF	; 255
 9e6:	9c e2       	ldi	r25, 0x2C	; 44
 9e8:	21 50       	subi	r18, 0x01	; 1
 9ea:	80 40       	sbci	r24, 0x00	; 0
 9ec:	90 40       	sbci	r25, 0x00	; 0
 9ee:	e1 f7       	brne	.-8      	; 0x9e8 <drop+0xe>
 9f0:	00 c0       	rjmp	.+0      	; 0x9f2 <drop+0x18>
 9f2:	00 00       	nop
 9f4:	8c 2f       	mov	r24, r28
 9f6:	0d df       	rcall	.-486    	; 0x812 <open>
 9f8:	2f ef       	ldi	r18, 0xFF	; 255
 9fa:	8f ef       	ldi	r24, 0xFF	; 255
 9fc:	96 e8       	ldi	r25, 0x86	; 134
 9fe:	21 50       	subi	r18, 0x01	; 1
 a00:	80 40       	sbci	r24, 0x00	; 0
 a02:	90 40       	sbci	r25, 0x00	; 0
 a04:	e1 f7       	brne	.-8      	; 0x9fe <drop+0x24>
 a06:	00 c0       	rjmp	.+0      	; 0xa08 <drop+0x2e>
 a08:	00 00       	nop
 a0a:	f3 de       	rcall	.-538    	; 0x7f2 <elevate>
 a0c:	2f ef       	ldi	r18, 0xFF	; 255
 a0e:	8f ef       	ldi	r24, 0xFF	; 255
 a10:	9c e2       	ldi	r25, 0x2C	; 44
 a12:	21 50       	subi	r18, 0x01	; 1
 a14:	80 40       	sbci	r24, 0x00	; 0
 a16:	90 40       	sbci	r25, 0x00	; 0
 a18:	e1 f7       	brne	.-8      	; 0xa12 <drop+0x38>
 a1a:	00 c0       	rjmp	.+0      	; 0xa1c <drop+0x42>
 a1c:	00 00       	nop
 a1e:	80 91 02 02 	lds	r24, 0x0202
 a22:	90 91 03 02 	lds	r25, 0x0203
 a26:	01 96       	adiw	r24, 0x01	; 1
 a28:	90 93 03 02 	sts	0x0203, r25
 a2c:	80 93 02 02 	sts	0x0202, r24
 a30:	cd 2b       	or	r28, r29
 a32:	21 f4       	brne	.+8      	; 0xa3c <drop+0x62>
 a34:	81 e2       	ldi	r24, 0x21	; 33
 a36:	92 e0       	ldi	r25, 0x02	; 2
 a38:	1e df       	rcall	.-452    	; 0x876 <lcd>
 a3a:	03 c0       	rjmp	.+6      	; 0xa42 <drop+0x68>
 a3c:	8b e2       	ldi	r24, 0x2B	; 43
 a3e:	92 e0       	ldi	r25, 0x02	; 2
 a40:	1a df       	rcall	.-460    	; 0x876 <lcd>
 a42:	df 91       	pop	r29
 a44:	cf 91       	pop	r28
 a46:	08 95       	ret

00000a48 <__init__>:
 a48:	ad de       	rcall	.-678    	; 0x7a4 <init_devices>
 a4a:	6c db       	rcall	.-2344   	; 0x124 <lcd_set_4bit>
 a4c:	d5 db       	rcall	.-2134   	; 0x1f8 <lcd_init>
 a4e:	13 de       	rcall	.-986    	; 0x676 <color_sensor_scaling>
 a50:	28 df       	rcall	.-432    	; 0x8a2 <setIndicatorAndColor>
 a52:	80 e7       	ldi	r24, 0x70	; 112
 a54:	97 e1       	ldi	r25, 0x17	; 23
 a56:	90 93 63 02 	sts	0x0263, r25
 a5a:	80 93 62 02 	sts	0x0262, r24
 a5e:	10 92 8b 00 	sts	0x008B, r1
 a62:	83 e5       	ldi	r24, 0x53	; 83
 a64:	80 93 8a 00 	sts	0x008A, r24
 a68:	08 95       	ret

00000a6a <node>:
 a6a:	21 e0       	ldi	r18, 0x01	; 1
 a6c:	30 e0       	ldi	r19, 0x00	; 0
 a6e:	41 e0       	ldi	r20, 0x01	; 1
 a70:	50 e0       	ldi	r21, 0x00	; 0
 a72:	61 e0       	ldi	r22, 0x01	; 1
 a74:	81 e0       	ldi	r24, 0x01	; 1
 a76:	22 dc       	rcall	.-1980   	; 0x2bc <lcd_print>
 a78:	86 e9       	ldi	r24, 0x96	; 150
 a7a:	80 93 28 01 	sts	0x0128, r24
 a7e:	80 93 2a 01 	sts	0x012A, r24
 a82:	88 e2       	ldi	r24, 0x28	; 40
 a84:	90 e0       	ldi	r25, 0x00	; 0
 a86:	85 de       	rcall	.-758    	; 0x792 <forward_mm>
 a88:	40 cd       	rjmp	.-1408   	; 0x50a <stop>
 a8a:	08 95       	ret

00000a8c <Delay>:
 a8c:	0f 93       	push	r16
 a8e:	1f 93       	push	r17
 a90:	cf 93       	push	r28
 a92:	df 93       	push	r29
 a94:	8c 01       	movw	r16, r24
 a96:	18 16       	cp	r1, r24
 a98:	19 06       	cpc	r1, r25
 a9a:	8c f4       	brge	.+34     	; 0xabe <Delay+0x32>
 a9c:	c0 e0       	ldi	r28, 0x00	; 0
 a9e:	d0 e0       	ldi	r29, 0x00	; 0
 aa0:	09 c0       	rjmp	.+18     	; 0xab4 <Delay+0x28>
 aa2:	86 e6       	ldi	r24, 0x66	; 102
 aa4:	9e e0       	ldi	r25, 0x0E	; 14
 aa6:	01 97       	sbiw	r24, 0x01	; 1
 aa8:	f1 f7       	brne	.-4      	; 0xaa6 <Delay+0x1a>
 aaa:	00 00       	nop
 aac:	21 96       	adiw	r28, 0x01	; 1
 aae:	c0 17       	cp	r28, r16
 ab0:	d1 07       	cpc	r29, r17
 ab2:	39 f0       	breq	.+14     	; 0xac2 <Delay+0x36>
 ab4:	82 e0       	ldi	r24, 0x02	; 2
 ab6:	89 dd       	rcall	.-1262   	; 0x5ca <ADC_Conversion>
 ab8:	88 32       	cpi	r24, 0x28	; 40
 aba:	98 f3       	brcs	.-26     	; 0xaa2 <Delay+0x16>
 abc:	02 c0       	rjmp	.+4      	; 0xac2 <Delay+0x36>
 abe:	c0 e0       	ldi	r28, 0x00	; 0
 ac0:	d0 e0       	ldi	r29, 0x00	; 0
 ac2:	23 dd       	rcall	.-1466   	; 0x50a <stop>
 ac4:	81 e0       	ldi	r24, 0x01	; 1
 ac6:	c0 17       	cp	r28, r16
 ac8:	d1 07       	cpc	r29, r17
 aca:	0c f0       	brlt	.+2      	; 0xace <Delay+0x42>
 acc:	80 e0       	ldi	r24, 0x00	; 0
 ace:	df 91       	pop	r29
 ad0:	cf 91       	pop	r28
 ad2:	1f 91       	pop	r17
 ad4:	0f 91       	pop	r16
 ad6:	08 95       	ret

00000ad8 <semiCorrect>:
 ad8:	80 91 4c 02 	lds	r24, 0x024C
 adc:	89 32       	cpi	r24, 0x29	; 41
 ade:	58 f0       	brcs	.+22     	; 0xaf6 <semiCorrect+0x1e>
 ae0:	90 91 4d 02 	lds	r25, 0x024D
 ae4:	99 32       	cpi	r25, 0x29	; 41
 ae6:	20 f4       	brcc	.+8      	; 0xaf0 <semiCorrect+0x18>
 ae8:	90 91 4b 02 	lds	r25, 0x024B
 aec:	99 32       	cpi	r25, 0x29	; 41
 aee:	18 f0       	brcs	.+6      	; 0xaf6 <semiCorrect+0x1e>
 af0:	bc df       	rcall	.-136    	; 0xa6a <node>
 af2:	81 e0       	ldi	r24, 0x01	; 1
 af4:	08 95       	ret
 af6:	88 32       	cpi	r24, 0x28	; 40
 af8:	e0 f4       	brcc	.+56     	; 0xb32 <semiCorrect+0x5a>
 afa:	80 91 4d 02 	lds	r24, 0x024D
 afe:	89 32       	cpi	r24, 0x29	; 41
 b00:	58 f0       	brcs	.+22     	; 0xb18 <semiCorrect+0x40>
 b02:	90 91 4b 02 	lds	r25, 0x024B
 b06:	98 32       	cpi	r25, 0x28	; 40
 b08:	38 f4       	brcc	.+14     	; 0xb18 <semiCorrect+0x40>
 b0a:	f9 dc       	rcall	.-1550   	; 0x4fe <left>
 b0c:	57 de       	rcall	.-850    	; 0x7bc <set_color>
 b0e:	80 91 4c 02 	lds	r24, 0x024C
 b12:	88 32       	cpi	r24, 0x28	; 40
 b14:	d0 f3       	brcs	.-12     	; 0xb0a <semiCorrect+0x32>
 b16:	0f c0       	rjmp	.+30     	; 0xb36 <semiCorrect+0x5e>
 b18:	90 91 4b 02 	lds	r25, 0x024B
 b1c:	99 32       	cpi	r25, 0x29	; 41
 b1e:	68 f0       	brcs	.+26     	; 0xb3a <semiCorrect+0x62>
 b20:	88 32       	cpi	r24, 0x28	; 40
 b22:	68 f4       	brcc	.+26     	; 0xb3e <semiCorrect+0x66>
 b24:	ef dc       	rcall	.-1570   	; 0x504 <right>
 b26:	4a de       	rcall	.-876    	; 0x7bc <set_color>
 b28:	80 91 4c 02 	lds	r24, 0x024C
 b2c:	88 32       	cpi	r24, 0x28	; 40
 b2e:	d0 f3       	brcs	.-12     	; 0xb24 <semiCorrect+0x4c>
 b30:	08 c0       	rjmp	.+16     	; 0xb42 <semiCorrect+0x6a>
 b32:	80 e0       	ldi	r24, 0x00	; 0
 b34:	08 95       	ret
 b36:	80 e0       	ldi	r24, 0x00	; 0
 b38:	08 95       	ret
 b3a:	80 e0       	ldi	r24, 0x00	; 0
 b3c:	08 95       	ret
 b3e:	80 e0       	ldi	r24, 0x00	; 0
 b40:	08 95       	ret
 b42:	80 e0       	ldi	r24, 0x00	; 0
 b44:	08 95       	ret

00000b46 <correct>:
 b46:	1f 93       	push	r17
 b48:	cf 93       	push	r28
 b4a:	df 93       	push	r29
 b4c:	85 e0       	ldi	r24, 0x05	; 5
 b4e:	90 e0       	ldi	r25, 0x00	; 0
 b50:	90 93 69 02 	sts	0x0269, r25
 b54:	80 93 68 02 	sts	0x0268, r24
 b58:	d8 dc       	rcall	.-1616   	; 0x50a <stop>
 b5a:	81 e0       	ldi	r24, 0x01	; 1
 b5c:	80 93 4a 02 	sts	0x024A, r24
 b60:	c2 e3       	ldi	r28, 0x32	; 50
 b62:	d0 e0       	ldi	r29, 0x00	; 0
 b64:	cc dc       	rcall	.-1640   	; 0x4fe <left>
 b66:	ce 01       	movw	r24, r28
 b68:	91 df       	rcall	.-222    	; 0xa8c <Delay>
 b6a:	81 11       	cpse	r24, r1
 b6c:	2a c0       	rjmp	.+84     	; 0xbc2 <correct+0x7c>
 b6e:	cd dc       	rcall	.-1638   	; 0x50a <stop>
 b70:	21 e0       	ldi	r18, 0x01	; 1
 b72:	30 e0       	ldi	r19, 0x00	; 0
 b74:	41 e0       	ldi	r20, 0x01	; 1
 b76:	50 e0       	ldi	r21, 0x00	; 0
 b78:	61 e0       	ldi	r22, 0x01	; 1
 b7a:	81 e0       	ldi	r24, 0x01	; 1
 b7c:	9f db       	rcall	.-2242   	; 0x2bc <lcd_print>
 b7e:	ac df       	rcall	.-168    	; 0xad8 <semiCorrect>
 b80:	18 2f       	mov	r17, r24
 b82:	81 11       	cpse	r24, r1
 b84:	20 c0       	rjmp	.+64     	; 0xbc6 <correct+0x80>
 b86:	82 e0       	ldi	r24, 0x02	; 2
 b88:	20 dd       	rcall	.-1472   	; 0x5ca <ADC_Conversion>
 b8a:	89 32       	cpi	r24, 0x29	; 41
 b8c:	c0 f4       	brcc	.+48     	; 0xbbe <correct+0x78>
 b8e:	ba dc       	rcall	.-1676   	; 0x504 <right>
 b90:	ce 01       	movw	r24, r28
 b92:	c2 96       	adiw	r24, 0x32	; 50
 b94:	7b df       	rcall	.-266    	; 0xa8c <Delay>
 b96:	81 11       	cpse	r24, r1
 b98:	19 c0       	rjmp	.+50     	; 0xbcc <correct+0x86>
 b9a:	b7 dc       	rcall	.-1682   	; 0x50a <stop>
 b9c:	21 e0       	ldi	r18, 0x01	; 1
 b9e:	30 e0       	ldi	r19, 0x00	; 0
 ba0:	42 e0       	ldi	r20, 0x02	; 2
 ba2:	50 e0       	ldi	r21, 0x00	; 0
 ba4:	61 e0       	ldi	r22, 0x01	; 1
 ba6:	81 e0       	ldi	r24, 0x01	; 1
 ba8:	89 db       	rcall	.-2286   	; 0x2bc <lcd_print>
 baa:	96 df       	rcall	.-212    	; 0xad8 <semiCorrect>
 bac:	81 11       	cpse	r24, r1
 bae:	0d c0       	rjmp	.+26     	; 0xbca <correct+0x84>
 bb0:	82 e0       	ldi	r24, 0x02	; 2
 bb2:	0b dd       	rcall	.-1514   	; 0x5ca <ADC_Conversion>
 bb4:	89 32       	cpi	r24, 0x29	; 41
 bb6:	18 f4       	brcc	.+6      	; 0xbbe <correct+0x78>
 bb8:	cc 59       	subi	r28, 0x9C	; 156
 bba:	df 4f       	sbci	r29, 0xFF	; 255
 bbc:	d3 cf       	rjmp	.-90     	; 0xb64 <correct+0x1e>
 bbe:	a5 dc       	rcall	.-1718   	; 0x50a <stop>
 bc0:	05 c0       	rjmp	.+10     	; 0xbcc <correct+0x86>
 bc2:	10 e0       	ldi	r17, 0x00	; 0
 bc4:	03 c0       	rjmp	.+6      	; 0xbcc <correct+0x86>
 bc6:	11 e0       	ldi	r17, 0x01	; 1
 bc8:	01 c0       	rjmp	.+2      	; 0xbcc <correct+0x86>
 bca:	11 e0       	ldi	r17, 0x01	; 1
 bcc:	81 2f       	mov	r24, r17
 bce:	df 91       	pop	r29
 bd0:	cf 91       	pop	r28
 bd2:	1f 91       	pop	r17
 bd4:	08 95       	ret

00000bd6 <noNatak>:
 bd6:	88 ec       	ldi	r24, 0xC8	; 200
 bd8:	80 93 28 01 	sts	0x0128, r24
 bdc:	80 93 2a 01 	sts	0x012A, r24
 be0:	80 91 4c 02 	lds	r24, 0x024C
 be4:	88 32       	cpi	r24, 0x28	; 40
 be6:	90 f5       	brcc	.+100    	; 0xc4c <noNatak+0x76>
 be8:	80 91 4d 02 	lds	r24, 0x024D
 bec:	89 32       	cpi	r24, 0x29	; 41
 bee:	a0 f0       	brcs	.+40     	; 0xc18 <noNatak+0x42>
 bf0:	90 91 4b 02 	lds	r25, 0x024B
 bf4:	98 32       	cpi	r25, 0x28	; 40
 bf6:	80 f4       	brcc	.+32     	; 0xc18 <noNatak+0x42>
 bf8:	02 c0       	rjmp	.+4      	; 0xbfe <noNatak+0x28>
 bfa:	81 dc       	rcall	.-1790   	; 0x4fe <left>
 bfc:	df dd       	rcall	.-1090   	; 0x7bc <set_color>
 bfe:	80 91 4c 02 	lds	r24, 0x024C
 c02:	89 32       	cpi	r24, 0x29	; 41
 c04:	d0 f3       	brcs	.-12     	; 0xbfa <noNatak+0x24>
 c06:	80 91 4d 02 	lds	r24, 0x024D
 c0a:	88 32       	cpi	r24, 0x28	; 40
 c0c:	b0 f7       	brcc	.-20     	; 0xbfa <noNatak+0x24>
 c0e:	80 91 4b 02 	lds	r24, 0x024B
 c12:	88 32       	cpi	r24, 0x28	; 40
 c14:	90 f7       	brcc	.-28     	; 0xbfa <noNatak+0x24>
 c16:	2f c0       	rjmp	.+94     	; 0xc76 <noNatak+0xa0>
 c18:	90 91 4b 02 	lds	r25, 0x024B
 c1c:	99 32       	cpi	r25, 0x29	; 41
 c1e:	90 f0       	brcs	.+36     	; 0xc44 <noNatak+0x6e>
 c20:	88 32       	cpi	r24, 0x28	; 40
 c22:	80 f4       	brcc	.+32     	; 0xc44 <noNatak+0x6e>
 c24:	02 c0       	rjmp	.+4      	; 0xc2a <noNatak+0x54>
 c26:	6e dc       	rcall	.-1828   	; 0x504 <right>
 c28:	c9 dd       	rcall	.-1134   	; 0x7bc <set_color>
 c2a:	80 91 4c 02 	lds	r24, 0x024C
 c2e:	89 32       	cpi	r24, 0x29	; 41
 c30:	d0 f3       	brcs	.-12     	; 0xc26 <noNatak+0x50>
 c32:	80 91 4d 02 	lds	r24, 0x024D
 c36:	88 32       	cpi	r24, 0x28	; 40
 c38:	b0 f7       	brcc	.-20     	; 0xc26 <noNatak+0x50>
 c3a:	80 91 4b 02 	lds	r24, 0x024B
 c3e:	88 32       	cpi	r24, 0x28	; 40
 c40:	90 f7       	brcc	.-28     	; 0xc26 <noNatak+0x50>
 c42:	19 c0       	rjmp	.+50     	; 0xc76 <noNatak+0xa0>
 c44:	80 df       	rcall	.-256    	; 0xb46 <correct>
 c46:	81 11       	cpse	r24, r1
 c48:	18 c0       	rjmp	.+48     	; 0xc7a <noNatak+0xa4>
 c4a:	15 c0       	rjmp	.+42     	; 0xc76 <noNatak+0xa0>
 c4c:	80 91 4d 02 	lds	r24, 0x024D
 c50:	89 32       	cpi	r24, 0x29	; 41
 c52:	30 f0       	brcs	.+12     	; 0xc60 <noNatak+0x8a>
 c54:	90 91 4b 02 	lds	r25, 0x024B
 c58:	98 32       	cpi	r25, 0x28	; 40
 c5a:	10 f4       	brcc	.+4      	; 0xc60 <noNatak+0x8a>
 c5c:	06 df       	rcall	.-500    	; 0xa6a <node>
 c5e:	0d c0       	rjmp	.+26     	; 0xc7a <noNatak+0xa4>
 c60:	88 32       	cpi	r24, 0x28	; 40
 c62:	30 f4       	brcc	.+12     	; 0xc70 <noNatak+0x9a>
 c64:	80 91 4b 02 	lds	r24, 0x024B
 c68:	89 32       	cpi	r24, 0x29	; 41
 c6a:	10 f0       	brcs	.+4      	; 0xc70 <noNatak+0x9a>
 c6c:	fe de       	rcall	.-516    	; 0xa6a <node>
 c6e:	05 c0       	rjmp	.+10     	; 0xc7a <noNatak+0xa4>
 c70:	6a df       	rcall	.-300    	; 0xb46 <correct>
 c72:	81 11       	cpse	r24, r1
 c74:	02 c0       	rjmp	.+4      	; 0xc7a <noNatak+0xa4>
 c76:	49 cc       	rjmp	.-1902   	; 0x50a <stop>
 c78:	08 95       	ret
 c7a:	81 e0       	ldi	r24, 0x01	; 1
 c7c:	08 95       	ret

00000c7e <forwardJaa>:
 c7e:	ff 92       	push	r15
 c80:	0f 93       	push	r16
 c82:	1f 93       	push	r17
 c84:	cf 93       	push	r28
 c86:	df 93       	push	r29
 c88:	08 e2       	ldi	r16, 0x28	; 40
 c8a:	11 e0       	ldi	r17, 0x01	; 1
 c8c:	0f 2e       	mov	r0, r31
 c8e:	f0 ef       	ldi	r31, 0xF0	; 240
 c90:	ff 2e       	mov	r15, r31
 c92:	f0 2d       	mov	r31, r0
 c94:	ca e2       	ldi	r28, 0x2A	; 42
 c96:	d1 e0       	ldi	r29, 0x01	; 1
 c98:	2f dc       	rcall	.-1954   	; 0x4f8 <forward>
 c9a:	90 dd       	rcall	.-1248   	; 0x7bc <set_color>
 c9c:	80 91 4c 02 	lds	r24, 0x024C
 ca0:	89 32       	cpi	r24, 0x29	; 41
 ca2:	50 f0       	brcs	.+20     	; 0xcb8 <forwardJaa+0x3a>
 ca4:	80 91 4d 02 	lds	r24, 0x024D
 ca8:	89 32       	cpi	r24, 0x29	; 41
 caa:	20 f4       	brcc	.+8      	; 0xcb4 <forwardJaa+0x36>
 cac:	80 91 4b 02 	lds	r24, 0x024B
 cb0:	89 32       	cpi	r24, 0x29	; 41
 cb2:	10 f0       	brcs	.+4      	; 0xcb8 <forwardJaa+0x3a>
 cb4:	da de       	rcall	.-588    	; 0xa6a <node>
 cb6:	13 c0       	rjmp	.+38     	; 0xcde <forwardJaa+0x60>
 cb8:	f8 01       	movw	r30, r16
 cba:	f0 82       	st	Z, r15
 cbc:	f8 82       	st	Y, r15
 cbe:	80 91 4c 02 	lds	r24, 0x024C
 cc2:	89 32       	cpi	r24, 0x29	; 41
 cc4:	40 f0       	brcs	.+16     	; 0xcd6 <forwardJaa+0x58>
 cc6:	80 91 4d 02 	lds	r24, 0x024D
 cca:	88 32       	cpi	r24, 0x28	; 40
 ccc:	20 f4       	brcc	.+8      	; 0xcd6 <forwardJaa+0x58>
 cce:	80 91 4b 02 	lds	r24, 0x024B
 cd2:	88 32       	cpi	r24, 0x28	; 40
 cd4:	08 f3       	brcs	.-62     	; 0xc98 <forwardJaa+0x1a>
 cd6:	7f df       	rcall	.-258    	; 0xbd6 <noNatak>
 cd8:	81 11       	cpse	r24, r1
 cda:	01 c0       	rjmp	.+2      	; 0xcde <forwardJaa+0x60>
 cdc:	d0 df       	rcall	.-96     	; 0xc7e <forwardJaa>
 cde:	df 91       	pop	r29
 ce0:	cf 91       	pop	r28
 ce2:	1f 91       	pop	r17
 ce4:	0f 91       	pop	r16
 ce6:	ff 90       	pop	r15
 ce8:	08 95       	ret

00000cea <main>:
	angle += 180;
}
int main()
{
	int i=0;
	__init__();
 cea:	ae de       	rcall	.-676    	; 0xa48 <__init__>
	ct = 2; adj = 0;
 cec:	82 e0       	ldi	r24, 0x02	; 2
 cee:	90 e0       	ldi	r25, 0x00	; 0
 cf0:	90 93 7e 02 	sts	0x027E, r25
 cf4:	80 93 7d 02 	sts	0x027D, r24
 cf8:	10 92 a4 02 	sts	0x02A4, r1
 cfc:	10 92 a3 02 	sts	0x02A3, r1
	dir=2;
 d00:	90 93 01 02 	sts	0x0201, r25
 d04:	80 93 00 02 	sts	0x0200, r24
//Function to rotate Servo 1 by a specified angle in the multiples of 1.86 degrees
void servo_1(unsigned char degrees)
{
	float PositionPanServo = 0;
	PositionPanServo = ((float)degrees / 1.86) + 35.0;
	OCR1AH = 0x00;
 d08:	10 92 89 00 	sts	0x0089, r1
	OCR1AL = (unsigned char) PositionPanServo;
 d0c:	83 e2       	ldi	r24, 0x23	; 35
 d0e:	80 93 88 00 	sts	0x0088, r24
//Function to rotate Servo 2 by a specified angle in the multiples of 1.86 degrees
void servo_2(unsigned char degrees)
{
	float PositionTiltServo = 0;
	PositionTiltServo = ((float)degrees / 1.86) + 35.0;
	OCR1BH = 0x00;
 d12:	10 92 8b 00 	sts	0x008B, r1
	OCR1BL = (unsigned char) PositionTiltServo;
 d16:	93 e5       	ldi	r25, 0x53	; 83
 d18:	90 93 8a 00 	sts	0x008A, r25
//Function to rotate Servo 3 by a specified angle in the multiples of 1.86 degrees
void servo_3(unsigned char degrees)
{
	float PositionServo = 0;
	PositionServo = ((float)degrees / 1.86) + 35.0;
	OCR1CH = 0x00;
 d1c:	10 92 8d 00 	sts	0x008D, r1
	OCR1CL = (unsigned char) PositionServo;
 d20:	80 93 8c 00 	sts	0x008C, r24
	
	//stop();
	servo_1(0);
	servo_2(90);
	servo_3(0);
	forwardJaa();
 d24:	ac df       	rcall	.-168    	; 0xc7e <forwardJaa>
	while(1)
	{
		
		pick(1);
 d26:	81 e0       	ldi	r24, 0x01	; 1
 d28:	90 e0       	ldi	r25, 0x00	; 0
 d2a:	17 de       	rcall	.-978    	; 0x95a <pick>
	#else
		//round up by default
		__ticks_dc = (uint32_t)(ceil(fabs(__tmp)));
	#endif

	__builtin_avr_delay_cycles(__ticks_dc);
 d2c:	2f ef       	ldi	r18, 0xFF	; 255
 d2e:	8f ef       	ldi	r24, 0xFF	; 255
 d30:	9c e2       	ldi	r25, 0x2C	; 44
 d32:	21 50       	subi	r18, 0x01	; 1
 d34:	80 40       	sbci	r24, 0x00	; 0
 d36:	90 40       	sbci	r25, 0x00	; 0
 d38:	e1 f7       	brne	.-8      	; 0xd32 <main+0x48>
 d3a:	00 c0       	rjmp	.+0      	; 0xd3c <main+0x52>
 d3c:	00 00       	nop
		_delay_ms(1000);
		drop(0);
 d3e:	80 e0       	ldi	r24, 0x00	; 0
 d40:	90 e0       	ldi	r25, 0x00	; 0
 d42:	4b de       	rcall	.-874    	; 0x9da <drop>
 d44:	2f ef       	ldi	r18, 0xFF	; 255
 d46:	8f ef       	ldi	r24, 0xFF	; 255
 d48:	9c e2       	ldi	r25, 0x2C	; 44
 d4a:	21 50       	subi	r18, 0x01	; 1
 d4c:	80 40       	sbci	r24, 0x00	; 0
 d4e:	90 40       	sbci	r25, 0x00	; 0
 d50:	e1 f7       	brne	.-8      	; 0xd4a <main+0x60>
 d52:	00 c0       	rjmp	.+0      	; 0xd54 <main+0x6a>
 d54:	00 00       	nop
		_delay_ms(1000);
		drop(1);
 d56:	81 e0       	ldi	r24, 0x01	; 1
 d58:	90 e0       	ldi	r25, 0x00	; 0
 d5a:	3f de       	rcall	.-898    	; 0x9da <drop>
 d5c:	2f ef       	ldi	r18, 0xFF	; 255
 d5e:	8f ef       	ldi	r24, 0xFF	; 255
 d60:	9c e2       	ldi	r25, 0x2C	; 44
 d62:	21 50       	subi	r18, 0x01	; 1
 d64:	80 40       	sbci	r24, 0x00	; 0
 d66:	90 40       	sbci	r25, 0x00	; 0
 d68:	e1 f7       	brne	.-8      	; 0xd62 <main+0x78>
 d6a:	00 c0       	rjmp	.+0      	; 0xd6c <main+0x82>
 d6c:	00 00       	nop
		_delay_ms(1000);
		pick(0);
 d6e:	80 e0       	ldi	r24, 0x00	; 0
 d70:	90 e0       	ldi	r25, 0x00	; 0
 d72:	f3 dd       	rcall	.-1050   	; 0x95a <pick>
 d74:	d8 cf       	rjmp	.-80     	; 0xd26 <main+0x3c>

00000d76 <__divsf3>:
 d76:	0c d0       	rcall	.+24     	; 0xd90 <__divsf3x>
 d78:	e6 c0       	rjmp	.+460    	; 0xf46 <__fp_round>
 d7a:	de d0       	rcall	.+444    	; 0xf38 <__fp_pscB>
 d7c:	40 f0       	brcs	.+16     	; 0xd8e <__divsf3+0x18>
 d7e:	d5 d0       	rcall	.+426    	; 0xf2a <__fp_pscA>
 d80:	30 f0       	brcs	.+12     	; 0xd8e <__divsf3+0x18>
 d82:	21 f4       	brne	.+8      	; 0xd8c <__divsf3+0x16>
 d84:	5f 3f       	cpi	r21, 0xFF	; 255
 d86:	19 f0       	breq	.+6      	; 0xd8e <__divsf3+0x18>
 d88:	c7 c0       	rjmp	.+398    	; 0xf18 <__fp_inf>
 d8a:	51 11       	cpse	r21, r1
 d8c:	10 c1       	rjmp	.+544    	; 0xfae <__fp_szero>
 d8e:	ca c0       	rjmp	.+404    	; 0xf24 <__fp_nan>

00000d90 <__divsf3x>:
 d90:	eb d0       	rcall	.+470    	; 0xf68 <__fp_split3>
 d92:	98 f3       	brcs	.-26     	; 0xd7a <__divsf3+0x4>

00000d94 <__divsf3_pse>:
 d94:	99 23       	and	r25, r25
 d96:	c9 f3       	breq	.-14     	; 0xd8a <__divsf3+0x14>
 d98:	55 23       	and	r21, r21
 d9a:	b1 f3       	breq	.-20     	; 0xd88 <__divsf3+0x12>
 d9c:	95 1b       	sub	r25, r21
 d9e:	55 0b       	sbc	r21, r21
 da0:	bb 27       	eor	r27, r27
 da2:	aa 27       	eor	r26, r26
 da4:	62 17       	cp	r22, r18
 da6:	73 07       	cpc	r23, r19
 da8:	84 07       	cpc	r24, r20
 daa:	38 f0       	brcs	.+14     	; 0xdba <__divsf3_pse+0x26>
 dac:	9f 5f       	subi	r25, 0xFF	; 255
 dae:	5f 4f       	sbci	r21, 0xFF	; 255
 db0:	22 0f       	add	r18, r18
 db2:	33 1f       	adc	r19, r19
 db4:	44 1f       	adc	r20, r20
 db6:	aa 1f       	adc	r26, r26
 db8:	a9 f3       	breq	.-22     	; 0xda4 <__divsf3_pse+0x10>
 dba:	33 d0       	rcall	.+102    	; 0xe22 <__divsf3_pse+0x8e>
 dbc:	0e 2e       	mov	r0, r30
 dbe:	3a f0       	brmi	.+14     	; 0xdce <__divsf3_pse+0x3a>
 dc0:	e0 e8       	ldi	r30, 0x80	; 128
 dc2:	30 d0       	rcall	.+96     	; 0xe24 <__divsf3_pse+0x90>
 dc4:	91 50       	subi	r25, 0x01	; 1
 dc6:	50 40       	sbci	r21, 0x00	; 0
 dc8:	e6 95       	lsr	r30
 dca:	00 1c       	adc	r0, r0
 dcc:	ca f7       	brpl	.-14     	; 0xdc0 <__divsf3_pse+0x2c>
 dce:	29 d0       	rcall	.+82     	; 0xe22 <__divsf3_pse+0x8e>
 dd0:	fe 2f       	mov	r31, r30
 dd2:	27 d0       	rcall	.+78     	; 0xe22 <__divsf3_pse+0x8e>
 dd4:	66 0f       	add	r22, r22
 dd6:	77 1f       	adc	r23, r23
 dd8:	88 1f       	adc	r24, r24
 dda:	bb 1f       	adc	r27, r27
 ddc:	26 17       	cp	r18, r22
 dde:	37 07       	cpc	r19, r23
 de0:	48 07       	cpc	r20, r24
 de2:	ab 07       	cpc	r26, r27
 de4:	b0 e8       	ldi	r27, 0x80	; 128
 de6:	09 f0       	breq	.+2      	; 0xdea <__divsf3_pse+0x56>
 de8:	bb 0b       	sbc	r27, r27
 dea:	80 2d       	mov	r24, r0
 dec:	bf 01       	movw	r22, r30
 dee:	ff 27       	eor	r31, r31
 df0:	93 58       	subi	r25, 0x83	; 131
 df2:	5f 4f       	sbci	r21, 0xFF	; 255
 df4:	2a f0       	brmi	.+10     	; 0xe00 <__divsf3_pse+0x6c>
 df6:	9e 3f       	cpi	r25, 0xFE	; 254
 df8:	51 05       	cpc	r21, r1
 dfa:	68 f0       	brcs	.+26     	; 0xe16 <__divsf3_pse+0x82>
 dfc:	8d c0       	rjmp	.+282    	; 0xf18 <__fp_inf>
 dfe:	d7 c0       	rjmp	.+430    	; 0xfae <__fp_szero>
 e00:	5f 3f       	cpi	r21, 0xFF	; 255
 e02:	ec f3       	brlt	.-6      	; 0xdfe <__divsf3_pse+0x6a>
 e04:	98 3e       	cpi	r25, 0xE8	; 232
 e06:	dc f3       	brlt	.-10     	; 0xdfe <__divsf3_pse+0x6a>
 e08:	86 95       	lsr	r24
 e0a:	77 95       	ror	r23
 e0c:	67 95       	ror	r22
 e0e:	b7 95       	ror	r27
 e10:	f7 95       	ror	r31
 e12:	9f 5f       	subi	r25, 0xFF	; 255
 e14:	c9 f7       	brne	.-14     	; 0xe08 <__divsf3_pse+0x74>
 e16:	88 0f       	add	r24, r24
 e18:	91 1d       	adc	r25, r1
 e1a:	96 95       	lsr	r25
 e1c:	87 95       	ror	r24
 e1e:	97 f9       	bld	r25, 7
 e20:	08 95       	ret
 e22:	e1 e0       	ldi	r30, 0x01	; 1
 e24:	66 0f       	add	r22, r22
 e26:	77 1f       	adc	r23, r23
 e28:	88 1f       	adc	r24, r24
 e2a:	bb 1f       	adc	r27, r27
 e2c:	62 17       	cp	r22, r18
 e2e:	73 07       	cpc	r23, r19
 e30:	84 07       	cpc	r24, r20
 e32:	ba 07       	cpc	r27, r26
 e34:	20 f0       	brcs	.+8      	; 0xe3e <__divsf3_pse+0xaa>
 e36:	62 1b       	sub	r22, r18
 e38:	73 0b       	sbc	r23, r19
 e3a:	84 0b       	sbc	r24, r20
 e3c:	ba 0b       	sbc	r27, r26
 e3e:	ee 1f       	adc	r30, r30
 e40:	88 f7       	brcc	.-30     	; 0xe24 <__divsf3_pse+0x90>
 e42:	e0 95       	com	r30
 e44:	08 95       	ret

00000e46 <__fixunssfsi>:
 e46:	98 d0       	rcall	.+304    	; 0xf78 <__fp_splitA>
 e48:	88 f0       	brcs	.+34     	; 0xe6c <__fixunssfsi+0x26>
 e4a:	9f 57       	subi	r25, 0x7F	; 127
 e4c:	90 f0       	brcs	.+36     	; 0xe72 <__fixunssfsi+0x2c>
 e4e:	b9 2f       	mov	r27, r25
 e50:	99 27       	eor	r25, r25
 e52:	b7 51       	subi	r27, 0x17	; 23
 e54:	a0 f0       	brcs	.+40     	; 0xe7e <__fixunssfsi+0x38>
 e56:	d1 f0       	breq	.+52     	; 0xe8c <__fixunssfsi+0x46>
 e58:	66 0f       	add	r22, r22
 e5a:	77 1f       	adc	r23, r23
 e5c:	88 1f       	adc	r24, r24
 e5e:	99 1f       	adc	r25, r25
 e60:	1a f0       	brmi	.+6      	; 0xe68 <__fixunssfsi+0x22>
 e62:	ba 95       	dec	r27
 e64:	c9 f7       	brne	.-14     	; 0xe58 <__fixunssfsi+0x12>
 e66:	12 c0       	rjmp	.+36     	; 0xe8c <__fixunssfsi+0x46>
 e68:	b1 30       	cpi	r27, 0x01	; 1
 e6a:	81 f0       	breq	.+32     	; 0xe8c <__fixunssfsi+0x46>
 e6c:	9f d0       	rcall	.+318    	; 0xfac <__fp_zero>
 e6e:	b1 e0       	ldi	r27, 0x01	; 1
 e70:	08 95       	ret
 e72:	9c c0       	rjmp	.+312    	; 0xfac <__fp_zero>
 e74:	67 2f       	mov	r22, r23
 e76:	78 2f       	mov	r23, r24
 e78:	88 27       	eor	r24, r24
 e7a:	b8 5f       	subi	r27, 0xF8	; 248
 e7c:	39 f0       	breq	.+14     	; 0xe8c <__fixunssfsi+0x46>
 e7e:	b9 3f       	cpi	r27, 0xF9	; 249
 e80:	cc f3       	brlt	.-14     	; 0xe74 <__fixunssfsi+0x2e>
 e82:	86 95       	lsr	r24
 e84:	77 95       	ror	r23
 e86:	67 95       	ror	r22
 e88:	b3 95       	inc	r27
 e8a:	d9 f7       	brne	.-10     	; 0xe82 <__fixunssfsi+0x3c>
 e8c:	3e f4       	brtc	.+14     	; 0xe9c <__fixunssfsi+0x56>
 e8e:	90 95       	com	r25
 e90:	80 95       	com	r24
 e92:	70 95       	com	r23
 e94:	61 95       	neg	r22
 e96:	7f 4f       	sbci	r23, 0xFF	; 255
 e98:	8f 4f       	sbci	r24, 0xFF	; 255
 e9a:	9f 4f       	sbci	r25, 0xFF	; 255
 e9c:	08 95       	ret

00000e9e <__floatunsisf>:
 e9e:	e8 94       	clt
 ea0:	09 c0       	rjmp	.+18     	; 0xeb4 <__floatsisf+0x12>

00000ea2 <__floatsisf>:
 ea2:	97 fb       	bst	r25, 7
 ea4:	3e f4       	brtc	.+14     	; 0xeb4 <__floatsisf+0x12>
 ea6:	90 95       	com	r25
 ea8:	80 95       	com	r24
 eaa:	70 95       	com	r23
 eac:	61 95       	neg	r22
 eae:	7f 4f       	sbci	r23, 0xFF	; 255
 eb0:	8f 4f       	sbci	r24, 0xFF	; 255
 eb2:	9f 4f       	sbci	r25, 0xFF	; 255
 eb4:	99 23       	and	r25, r25
 eb6:	a9 f0       	breq	.+42     	; 0xee2 <__floatsisf+0x40>
 eb8:	f9 2f       	mov	r31, r25
 eba:	96 e9       	ldi	r25, 0x96	; 150
 ebc:	bb 27       	eor	r27, r27
 ebe:	93 95       	inc	r25
 ec0:	f6 95       	lsr	r31
 ec2:	87 95       	ror	r24
 ec4:	77 95       	ror	r23
 ec6:	67 95       	ror	r22
 ec8:	b7 95       	ror	r27
 eca:	f1 11       	cpse	r31, r1
 ecc:	f8 cf       	rjmp	.-16     	; 0xebe <__floatsisf+0x1c>
 ece:	fa f4       	brpl	.+62     	; 0xf0e <__floatsisf+0x6c>
 ed0:	bb 0f       	add	r27, r27
 ed2:	11 f4       	brne	.+4      	; 0xed8 <__floatsisf+0x36>
 ed4:	60 ff       	sbrs	r22, 0
 ed6:	1b c0       	rjmp	.+54     	; 0xf0e <__floatsisf+0x6c>
 ed8:	6f 5f       	subi	r22, 0xFF	; 255
 eda:	7f 4f       	sbci	r23, 0xFF	; 255
 edc:	8f 4f       	sbci	r24, 0xFF	; 255
 ede:	9f 4f       	sbci	r25, 0xFF	; 255
 ee0:	16 c0       	rjmp	.+44     	; 0xf0e <__floatsisf+0x6c>
 ee2:	88 23       	and	r24, r24
 ee4:	11 f0       	breq	.+4      	; 0xeea <__floatsisf+0x48>
 ee6:	96 e9       	ldi	r25, 0x96	; 150
 ee8:	11 c0       	rjmp	.+34     	; 0xf0c <__floatsisf+0x6a>
 eea:	77 23       	and	r23, r23
 eec:	21 f0       	breq	.+8      	; 0xef6 <__floatsisf+0x54>
 eee:	9e e8       	ldi	r25, 0x8E	; 142
 ef0:	87 2f       	mov	r24, r23
 ef2:	76 2f       	mov	r23, r22
 ef4:	05 c0       	rjmp	.+10     	; 0xf00 <__floatsisf+0x5e>
 ef6:	66 23       	and	r22, r22
 ef8:	71 f0       	breq	.+28     	; 0xf16 <__floatsisf+0x74>
 efa:	96 e8       	ldi	r25, 0x86	; 134
 efc:	86 2f       	mov	r24, r22
 efe:	70 e0       	ldi	r23, 0x00	; 0
 f00:	60 e0       	ldi	r22, 0x00	; 0
 f02:	2a f0       	brmi	.+10     	; 0xf0e <__floatsisf+0x6c>
 f04:	9a 95       	dec	r25
 f06:	66 0f       	add	r22, r22
 f08:	77 1f       	adc	r23, r23
 f0a:	88 1f       	adc	r24, r24
 f0c:	da f7       	brpl	.-10     	; 0xf04 <__floatsisf+0x62>
 f0e:	88 0f       	add	r24, r24
 f10:	96 95       	lsr	r25
 f12:	87 95       	ror	r24
 f14:	97 f9       	bld	r25, 7
 f16:	08 95       	ret

00000f18 <__fp_inf>:
 f18:	97 f9       	bld	r25, 7
 f1a:	9f 67       	ori	r25, 0x7F	; 127
 f1c:	80 e8       	ldi	r24, 0x80	; 128
 f1e:	70 e0       	ldi	r23, 0x00	; 0
 f20:	60 e0       	ldi	r22, 0x00	; 0
 f22:	08 95       	ret

00000f24 <__fp_nan>:
 f24:	9f ef       	ldi	r25, 0xFF	; 255
 f26:	80 ec       	ldi	r24, 0xC0	; 192
 f28:	08 95       	ret

00000f2a <__fp_pscA>:
 f2a:	00 24       	eor	r0, r0
 f2c:	0a 94       	dec	r0
 f2e:	16 16       	cp	r1, r22
 f30:	17 06       	cpc	r1, r23
 f32:	18 06       	cpc	r1, r24
 f34:	09 06       	cpc	r0, r25
 f36:	08 95       	ret

00000f38 <__fp_pscB>:
 f38:	00 24       	eor	r0, r0
 f3a:	0a 94       	dec	r0
 f3c:	12 16       	cp	r1, r18
 f3e:	13 06       	cpc	r1, r19
 f40:	14 06       	cpc	r1, r20
 f42:	05 06       	cpc	r0, r21
 f44:	08 95       	ret

00000f46 <__fp_round>:
 f46:	09 2e       	mov	r0, r25
 f48:	03 94       	inc	r0
 f4a:	00 0c       	add	r0, r0
 f4c:	11 f4       	brne	.+4      	; 0xf52 <__fp_round+0xc>
 f4e:	88 23       	and	r24, r24
 f50:	52 f0       	brmi	.+20     	; 0xf66 <__fp_round+0x20>
 f52:	bb 0f       	add	r27, r27
 f54:	40 f4       	brcc	.+16     	; 0xf66 <__fp_round+0x20>
 f56:	bf 2b       	or	r27, r31
 f58:	11 f4       	brne	.+4      	; 0xf5e <__fp_round+0x18>
 f5a:	60 ff       	sbrs	r22, 0
 f5c:	04 c0       	rjmp	.+8      	; 0xf66 <__fp_round+0x20>
 f5e:	6f 5f       	subi	r22, 0xFF	; 255
 f60:	7f 4f       	sbci	r23, 0xFF	; 255
 f62:	8f 4f       	sbci	r24, 0xFF	; 255
 f64:	9f 4f       	sbci	r25, 0xFF	; 255
 f66:	08 95       	ret

00000f68 <__fp_split3>:
 f68:	57 fd       	sbrc	r21, 7
 f6a:	90 58       	subi	r25, 0x80	; 128
 f6c:	44 0f       	add	r20, r20
 f6e:	55 1f       	adc	r21, r21
 f70:	59 f0       	breq	.+22     	; 0xf88 <__fp_splitA+0x10>
 f72:	5f 3f       	cpi	r21, 0xFF	; 255
 f74:	71 f0       	breq	.+28     	; 0xf92 <__fp_splitA+0x1a>
 f76:	47 95       	ror	r20

00000f78 <__fp_splitA>:
 f78:	88 0f       	add	r24, r24
 f7a:	97 fb       	bst	r25, 7
 f7c:	99 1f       	adc	r25, r25
 f7e:	61 f0       	breq	.+24     	; 0xf98 <__fp_splitA+0x20>
 f80:	9f 3f       	cpi	r25, 0xFF	; 255
 f82:	79 f0       	breq	.+30     	; 0xfa2 <__fp_splitA+0x2a>
 f84:	87 95       	ror	r24
 f86:	08 95       	ret
 f88:	12 16       	cp	r1, r18
 f8a:	13 06       	cpc	r1, r19
 f8c:	14 06       	cpc	r1, r20
 f8e:	55 1f       	adc	r21, r21
 f90:	f2 cf       	rjmp	.-28     	; 0xf76 <__fp_split3+0xe>
 f92:	46 95       	lsr	r20
 f94:	f1 df       	rcall	.-30     	; 0xf78 <__fp_splitA>
 f96:	08 c0       	rjmp	.+16     	; 0xfa8 <__fp_splitA+0x30>
 f98:	16 16       	cp	r1, r22
 f9a:	17 06       	cpc	r1, r23
 f9c:	18 06       	cpc	r1, r24
 f9e:	99 1f       	adc	r25, r25
 fa0:	f1 cf       	rjmp	.-30     	; 0xf84 <__fp_splitA+0xc>
 fa2:	86 95       	lsr	r24
 fa4:	71 05       	cpc	r23, r1
 fa6:	61 05       	cpc	r22, r1
 fa8:	08 94       	sec
 faa:	08 95       	ret

00000fac <__fp_zero>:
 fac:	e8 94       	clt

00000fae <__fp_szero>:
 fae:	bb 27       	eor	r27, r27
 fb0:	66 27       	eor	r22, r22
 fb2:	77 27       	eor	r23, r23
 fb4:	cb 01       	movw	r24, r22
 fb6:	97 f9       	bld	r25, 7
 fb8:	08 95       	ret

00000fba <__umulhisi3>:
 fba:	a2 9f       	mul	r26, r18
 fbc:	b0 01       	movw	r22, r0
 fbe:	b3 9f       	mul	r27, r19
 fc0:	c0 01       	movw	r24, r0
 fc2:	a3 9f       	mul	r26, r19
 fc4:	70 0d       	add	r23, r0
 fc6:	81 1d       	adc	r24, r1
 fc8:	11 24       	eor	r1, r1
 fca:	91 1d       	adc	r25, r1
 fcc:	b2 9f       	mul	r27, r18
 fce:	70 0d       	add	r23, r0
 fd0:	81 1d       	adc	r24, r1
 fd2:	11 24       	eor	r1, r1
 fd4:	91 1d       	adc	r25, r1
 fd6:	08 95       	ret

00000fd8 <_exit>:
 fd8:	f8 94       	cli

00000fda <__stop_program>:
 fda:	ff cf       	rjmp	.-2      	; 0xfda <__stop_program>
