
turnCorrect.elf:     file format elf32-avr

Sections:
Idx Name          Size      VMA       LMA       File off  Algn
  0 .data         0000004a  00800200  00002f0c  00002fa0  2**0
                  CONTENTS, ALLOC, LOAD, DATA
  1 .text         00002f0c  00000000  00000000  00000094  2**1
                  CONTENTS, ALLOC, LOAD, READONLY, CODE
  2 .bss          00000071  0080024a  0080024a  00002fea  2**0
                  ALLOC
  3 .comment      00000030  00000000  00000000  00002fea  2**0
                  CONTENTS, READONLY
  4 .debug_aranges 00000360  00000000  00000000  0000301a  2**0
                  CONTENTS, READONLY, DEBUGGING
  5 .debug_info   000032b9  00000000  00000000  0000337a  2**0
                  CONTENTS, READONLY, DEBUGGING
  6 .debug_abbrev 000004d8  00000000  00000000  00006633  2**0
                  CONTENTS, READONLY, DEBUGGING
  7 .debug_line   000025e9  00000000  00000000  00006b0b  2**0
                  CONTENTS, READONLY, DEBUGGING
  8 .debug_frame  00000998  00000000  00000000  000090f4  2**2
                  CONTENTS, READONLY, DEBUGGING
  9 .debug_str    0000084a  00000000  00000000  00009a8c  2**0
                  CONTENTS, READONLY, DEBUGGING
 10 .debug_loc    000022d6  00000000  00000000  0000a2d6  2**0
                  CONTENTS, READONLY, DEBUGGING
 11 .debug_ranges 000003b0  00000000  00000000  0000c5ac  2**0
                  CONTENTS, READONLY, DEBUGGING

Disassembly of section .text:

00000000 <__vectors>:
       0:	71 c0       	rjmp	.+226    	; 0xe4 <__ctors_end>
       2:	00 00       	nop
       4:	06 c3       	rjmp	.+1548   	; 0x612 <__vector_1>
       6:	00 00       	nop
       8:	8e c0       	rjmp	.+284    	; 0x126 <__bad_interrupt>
       a:	00 00       	nop
       c:	8c c0       	rjmp	.+280    	; 0x126 <__bad_interrupt>
       e:	00 00       	nop
      10:	8a c0       	rjmp	.+276    	; 0x126 <__bad_interrupt>
      12:	00 00       	nop
      14:	08 c4       	rjmp	.+2064   	; 0x826 <__vector_5>
      16:	00 00       	nop
      18:	e1 c3       	rjmp	.+1986   	; 0x7dc <__vector_6>
      1a:	00 00       	nop
      1c:	84 c0       	rjmp	.+264    	; 0x126 <__bad_interrupt>
      1e:	00 00       	nop
      20:	82 c0       	rjmp	.+260    	; 0x126 <__bad_interrupt>
      22:	00 00       	nop
      24:	80 c0       	rjmp	.+256    	; 0x126 <__bad_interrupt>
      26:	00 00       	nop
      28:	7e c0       	rjmp	.+252    	; 0x126 <__bad_interrupt>
      2a:	00 00       	nop
      2c:	7c c0       	rjmp	.+248    	; 0x126 <__bad_interrupt>
      2e:	00 00       	nop
      30:	7a c0       	rjmp	.+244    	; 0x126 <__bad_interrupt>
      32:	00 00       	nop
      34:	78 c0       	rjmp	.+240    	; 0x126 <__bad_interrupt>
      36:	00 00       	nop
      38:	76 c0       	rjmp	.+236    	; 0x126 <__bad_interrupt>
      3a:	00 00       	nop
      3c:	74 c0       	rjmp	.+232    	; 0x126 <__bad_interrupt>
      3e:	00 00       	nop
      40:	72 c0       	rjmp	.+228    	; 0x126 <__bad_interrupt>
      42:	00 00       	nop
      44:	70 c0       	rjmp	.+224    	; 0x126 <__bad_interrupt>
      46:	00 00       	nop
      48:	6e c0       	rjmp	.+220    	; 0x126 <__bad_interrupt>
      4a:	00 00       	nop
      4c:	6c c0       	rjmp	.+216    	; 0x126 <__bad_interrupt>
      4e:	00 00       	nop
      50:	6a c0       	rjmp	.+212    	; 0x126 <__bad_interrupt>
      52:	00 00       	nop
      54:	68 c0       	rjmp	.+208    	; 0x126 <__bad_interrupt>
      56:	00 00       	nop
      58:	66 c0       	rjmp	.+204    	; 0x126 <__bad_interrupt>
      5a:	00 00       	nop
      5c:	64 c0       	rjmp	.+200    	; 0x126 <__bad_interrupt>
      5e:	00 00       	nop
      60:	62 c0       	rjmp	.+196    	; 0x126 <__bad_interrupt>
      62:	00 00       	nop
      64:	60 c0       	rjmp	.+192    	; 0x126 <__bad_interrupt>
      66:	00 00       	nop
      68:	5e c0       	rjmp	.+188    	; 0x126 <__bad_interrupt>
      6a:	00 00       	nop
      6c:	5c c0       	rjmp	.+184    	; 0x126 <__bad_interrupt>
      6e:	00 00       	nop
      70:	5a c0       	rjmp	.+180    	; 0x126 <__bad_interrupt>
      72:	00 00       	nop
      74:	58 c0       	rjmp	.+176    	; 0x126 <__bad_interrupt>
      76:	00 00       	nop
      78:	56 c0       	rjmp	.+172    	; 0x126 <__bad_interrupt>
      7a:	00 00       	nop
      7c:	54 c0       	rjmp	.+168    	; 0x126 <__bad_interrupt>
      7e:	00 00       	nop
      80:	52 c0       	rjmp	.+164    	; 0x126 <__bad_interrupt>
      82:	00 00       	nop
      84:	50 c0       	rjmp	.+160    	; 0x126 <__bad_interrupt>
      86:	00 00       	nop
      88:	4e c0       	rjmp	.+156    	; 0x126 <__bad_interrupt>
      8a:	00 00       	nop
      8c:	4c c0       	rjmp	.+152    	; 0x126 <__bad_interrupt>
      8e:	00 00       	nop
      90:	4a c0       	rjmp	.+148    	; 0x126 <__bad_interrupt>
      92:	00 00       	nop
      94:	48 c0       	rjmp	.+144    	; 0x126 <__bad_interrupt>
      96:	00 00       	nop
      98:	46 c0       	rjmp	.+140    	; 0x126 <__bad_interrupt>
      9a:	00 00       	nop
      9c:	44 c0       	rjmp	.+136    	; 0x126 <__bad_interrupt>
      9e:	00 00       	nop
      a0:	42 c0       	rjmp	.+132    	; 0x126 <__bad_interrupt>
      a2:	00 00       	nop
      a4:	40 c0       	rjmp	.+128    	; 0x126 <__bad_interrupt>
      a6:	00 00       	nop
      a8:	3e c0       	rjmp	.+124    	; 0x126 <__bad_interrupt>
      aa:	00 00       	nop
      ac:	3c c0       	rjmp	.+120    	; 0x126 <__bad_interrupt>
      ae:	00 00       	nop
      b0:	3a c0       	rjmp	.+116    	; 0x126 <__bad_interrupt>
      b2:	00 00       	nop
      b4:	38 c0       	rjmp	.+112    	; 0x126 <__bad_interrupt>
      b6:	00 00       	nop
      b8:	36 c0       	rjmp	.+108    	; 0x126 <__bad_interrupt>
      ba:	00 00       	nop
      bc:	34 c0       	rjmp	.+104    	; 0x126 <__bad_interrupt>
      be:	00 00       	nop
      c0:	32 c0       	rjmp	.+100    	; 0x126 <__bad_interrupt>
      c2:	00 00       	nop
      c4:	30 c0       	rjmp	.+96     	; 0x126 <__bad_interrupt>
      c6:	00 00       	nop
      c8:	2e c0       	rjmp	.+92     	; 0x126 <__bad_interrupt>
      ca:	00 00       	nop
      cc:	2c c0       	rjmp	.+88     	; 0x126 <__bad_interrupt>
      ce:	00 00       	nop
      d0:	2a c0       	rjmp	.+84     	; 0x126 <__bad_interrupt>
      d2:	00 00       	nop
      d4:	28 c0       	rjmp	.+80     	; 0x126 <__bad_interrupt>
      d6:	00 00       	nop
      d8:	26 c0       	rjmp	.+76     	; 0x126 <__bad_interrupt>
      da:	00 00       	nop
      dc:	24 c0       	rjmp	.+72     	; 0x126 <__bad_interrupt>
      de:	00 00       	nop
      e0:	22 c0       	rjmp	.+68     	; 0x126 <__bad_interrupt>
	...

000000e4 <__ctors_end>:
      e4:	11 24       	eor	r1, r1
      e6:	1f be       	out	0x3f, r1	; 63
      e8:	cf ef       	ldi	r28, 0xFF	; 255
      ea:	d1 e2       	ldi	r29, 0x21	; 33
      ec:	de bf       	out	0x3e, r29	; 62
      ee:	cd bf       	out	0x3d, r28	; 61
      f0:	00 e0       	ldi	r16, 0x00	; 0
      f2:	0c bf       	out	0x3c, r16	; 60

000000f4 <__do_copy_data>:
      f4:	12 e0       	ldi	r17, 0x02	; 2
      f6:	a0 e0       	ldi	r26, 0x00	; 0
      f8:	b2 e0       	ldi	r27, 0x02	; 2
      fa:	ec e0       	ldi	r30, 0x0C	; 12
      fc:	ff e2       	ldi	r31, 0x2F	; 47
      fe:	00 e0       	ldi	r16, 0x00	; 0
     100:	0b bf       	out	0x3b, r16	; 59
     102:	02 c0       	rjmp	.+4      	; 0x108 <__do_copy_data+0x14>
     104:	07 90       	elpm	r0, Z+
     106:	0d 92       	st	X+, r0
     108:	aa 34       	cpi	r26, 0x4A	; 74
     10a:	b1 07       	cpc	r27, r17
     10c:	d9 f7       	brne	.-10     	; 0x104 <__do_copy_data+0x10>

0000010e <__do_clear_bss>:
     10e:	22 e0       	ldi	r18, 0x02	; 2
     110:	aa e4       	ldi	r26, 0x4A	; 74
     112:	b2 e0       	ldi	r27, 0x02	; 2
     114:	01 c0       	rjmp	.+2      	; 0x118 <.do_clear_bss_start>

00000116 <.do_clear_bss_loop>:
     116:	1d 92       	st	X+, r1

00000118 <.do_clear_bss_start>:
     118:	ab 3b       	cpi	r26, 0xBB	; 187
     11a:	b2 07       	cpc	r27, r18
     11c:	e1 f7       	brne	.-8      	; 0x116 <.do_clear_bss_loop>
     11e:	0e 94 67 15 	call	0x2ace	; 0x2ace <main>
     122:	0c 94 84 17 	jmp	0x2f08	; 0x2f08 <_exit>

00000126 <__bad_interrupt>:
     126:	6c cf       	rjmp	.-296    	; 0x0 <__vectors>

00000128 <lcd_set_4bit>:
}

int adjCount(ct)
{
	return (ct + 2) % 4;
}
     128:	86 e6       	ldi	r24, 0x66	; 102
     12a:	9e e0       	ldi	r25, 0x0E	; 14
     12c:	01 97       	sbiw	r24, 0x01	; 1
     12e:	f1 f7       	brne	.-4      	; 0x12c <lcd_set_4bit+0x4>
     130:	00 00       	nop
     132:	40 98       	cbi	0x08, 0	; 8
     134:	41 98       	cbi	0x08, 1	; 8
     136:	80 e3       	ldi	r24, 0x30	; 48
     138:	88 b9       	out	0x08, r24	; 8
     13a:	42 9a       	sbi	0x08, 2	; 8
     13c:	8f ef       	ldi	r24, 0xFF	; 255
     13e:	97 e4       	ldi	r25, 0x47	; 71
     140:	01 97       	sbiw	r24, 0x01	; 1
     142:	f1 f7       	brne	.-4      	; 0x140 <lcd_set_4bit+0x18>
     144:	00 c0       	rjmp	.+0      	; 0x146 <lcd_set_4bit+0x1e>
     146:	00 00       	nop
     148:	42 98       	cbi	0x08, 2	; 8
     14a:	86 e6       	ldi	r24, 0x66	; 102
     14c:	9e e0       	ldi	r25, 0x0E	; 14
     14e:	01 97       	sbiw	r24, 0x01	; 1
     150:	f1 f7       	brne	.-4      	; 0x14e <lcd_set_4bit+0x26>
     152:	00 00       	nop
     154:	40 98       	cbi	0x08, 0	; 8
     156:	41 98       	cbi	0x08, 1	; 8
     158:	80 e3       	ldi	r24, 0x30	; 48
     15a:	88 b9       	out	0x08, r24	; 8
     15c:	42 9a       	sbi	0x08, 2	; 8
     15e:	8f ef       	ldi	r24, 0xFF	; 255
     160:	97 e4       	ldi	r25, 0x47	; 71
     162:	01 97       	sbiw	r24, 0x01	; 1
     164:	f1 f7       	brne	.-4      	; 0x162 <lcd_set_4bit+0x3a>
     166:	00 c0       	rjmp	.+0      	; 0x168 <lcd_set_4bit+0x40>
     168:	00 00       	nop
     16a:	42 98       	cbi	0x08, 2	; 8
     16c:	86 e6       	ldi	r24, 0x66	; 102
     16e:	9e e0       	ldi	r25, 0x0E	; 14
     170:	01 97       	sbiw	r24, 0x01	; 1
     172:	f1 f7       	brne	.-4      	; 0x170 <lcd_set_4bit+0x48>
     174:	00 00       	nop
     176:	40 98       	cbi	0x08, 0	; 8
     178:	41 98       	cbi	0x08, 1	; 8
     17a:	80 e3       	ldi	r24, 0x30	; 48
     17c:	88 b9       	out	0x08, r24	; 8
     17e:	42 9a       	sbi	0x08, 2	; 8
     180:	8f ef       	ldi	r24, 0xFF	; 255
     182:	97 e4       	ldi	r25, 0x47	; 71
     184:	01 97       	sbiw	r24, 0x01	; 1
     186:	f1 f7       	brne	.-4      	; 0x184 <lcd_set_4bit+0x5c>
     188:	00 c0       	rjmp	.+0      	; 0x18a <lcd_set_4bit+0x62>
     18a:	00 00       	nop
     18c:	42 98       	cbi	0x08, 2	; 8
     18e:	86 e6       	ldi	r24, 0x66	; 102
     190:	9e e0       	ldi	r25, 0x0E	; 14
     192:	01 97       	sbiw	r24, 0x01	; 1
     194:	f1 f7       	brne	.-4      	; 0x192 <lcd_set_4bit+0x6a>
     196:	00 00       	nop
     198:	40 98       	cbi	0x08, 0	; 8
     19a:	41 98       	cbi	0x08, 1	; 8
     19c:	80 e2       	ldi	r24, 0x20	; 32
     19e:	88 b9       	out	0x08, r24	; 8
     1a0:	42 9a       	sbi	0x08, 2	; 8
     1a2:	8f ef       	ldi	r24, 0xFF	; 255
     1a4:	97 e4       	ldi	r25, 0x47	; 71
     1a6:	01 97       	sbiw	r24, 0x01	; 1
     1a8:	f1 f7       	brne	.-4      	; 0x1a6 <lcd_set_4bit+0x7e>
     1aa:	00 c0       	rjmp	.+0      	; 0x1ac <lcd_set_4bit+0x84>
     1ac:	00 00       	nop
     1ae:	42 98       	cbi	0x08, 2	; 8
     1b0:	08 95       	ret

000001b2 <lcd_wr_command>:
     1b2:	98 b1       	in	r25, 0x08	; 8
     1b4:	9f 70       	andi	r25, 0x0F	; 15
     1b6:	98 b9       	out	0x08, r25	; 8
     1b8:	98 b1       	in	r25, 0x08	; 8
     1ba:	28 2f       	mov	r18, r24
     1bc:	20 7f       	andi	r18, 0xF0	; 240
     1be:	92 2b       	or	r25, r18
     1c0:	98 b9       	out	0x08, r25	; 8
     1c2:	40 98       	cbi	0x08, 0	; 8
     1c4:	41 98       	cbi	0x08, 1	; 8
     1c6:	42 9a       	sbi	0x08, 2	; 8
     1c8:	ef ef       	ldi	r30, 0xFF	; 255
     1ca:	f7 e4       	ldi	r31, 0x47	; 71
     1cc:	31 97       	sbiw	r30, 0x01	; 1
     1ce:	f1 f7       	brne	.-4      	; 0x1cc <lcd_wr_command+0x1a>
     1d0:	00 c0       	rjmp	.+0      	; 0x1d2 <lcd_wr_command+0x20>
     1d2:	00 00       	nop
     1d4:	42 98       	cbi	0x08, 2	; 8
     1d6:	98 b1       	in	r25, 0x08	; 8
     1d8:	9f 70       	andi	r25, 0x0F	; 15
     1da:	98 b9       	out	0x08, r25	; 8
     1dc:	98 b1       	in	r25, 0x08	; 8
     1de:	82 95       	swap	r24
     1e0:	80 7f       	andi	r24, 0xF0	; 240
     1e2:	89 2b       	or	r24, r25
     1e4:	88 b9       	out	0x08, r24	; 8
     1e6:	40 98       	cbi	0x08, 0	; 8
     1e8:	41 98       	cbi	0x08, 1	; 8
     1ea:	42 9a       	sbi	0x08, 2	; 8
     1ec:	8f ef       	ldi	r24, 0xFF	; 255
     1ee:	97 e4       	ldi	r25, 0x47	; 71
     1f0:	01 97       	sbiw	r24, 0x01	; 1
     1f2:	f1 f7       	brne	.-4      	; 0x1f0 <lcd_wr_command+0x3e>
     1f4:	00 c0       	rjmp	.+0      	; 0x1f6 <lcd_wr_command+0x44>
     1f6:	00 00       	nop
     1f8:	42 98       	cbi	0x08, 2	; 8
     1fa:	08 95       	ret

000001fc <lcd_init>:
     1fc:	95 df       	rcall	.-214    	; 0x128 <lcd_set_4bit>
     1fe:	86 e6       	ldi	r24, 0x66	; 102
     200:	9e e0       	ldi	r25, 0x0E	; 14
     202:	01 97       	sbiw	r24, 0x01	; 1
     204:	f1 f7       	brne	.-4      	; 0x202 <lcd_init+0x6>
     206:	00 00       	nop
     208:	88 e2       	ldi	r24, 0x28	; 40
     20a:	d3 df       	rcall	.-90     	; 0x1b2 <lcd_wr_command>
     20c:	81 e0       	ldi	r24, 0x01	; 1
     20e:	d1 df       	rcall	.-94     	; 0x1b2 <lcd_wr_command>
     210:	86 e0       	ldi	r24, 0x06	; 6
     212:	cf df       	rcall	.-98     	; 0x1b2 <lcd_wr_command>
     214:	8e e0       	ldi	r24, 0x0E	; 14
     216:	cd df       	rcall	.-102    	; 0x1b2 <lcd_wr_command>
     218:	80 e8       	ldi	r24, 0x80	; 128
     21a:	cb cf       	rjmp	.-106    	; 0x1b2 <lcd_wr_command>
     21c:	08 95       	ret

0000021e <lcd_wr_char>:
     21e:	98 b1       	in	r25, 0x08	; 8
     220:	9f 70       	andi	r25, 0x0F	; 15
     222:	98 b9       	out	0x08, r25	; 8
     224:	98 b1       	in	r25, 0x08	; 8
     226:	28 2f       	mov	r18, r24
     228:	20 7f       	andi	r18, 0xF0	; 240
     22a:	92 2b       	or	r25, r18
     22c:	98 b9       	out	0x08, r25	; 8
     22e:	40 9a       	sbi	0x08, 0	; 8
     230:	41 98       	cbi	0x08, 1	; 8
     232:	42 9a       	sbi	0x08, 2	; 8
     234:	ef ef       	ldi	r30, 0xFF	; 255
     236:	f7 e4       	ldi	r31, 0x47	; 71
     238:	31 97       	sbiw	r30, 0x01	; 1
     23a:	f1 f7       	brne	.-4      	; 0x238 <lcd_wr_char+0x1a>
     23c:	00 c0       	rjmp	.+0      	; 0x23e <lcd_wr_char+0x20>
     23e:	00 00       	nop
     240:	42 98       	cbi	0x08, 2	; 8
     242:	98 b1       	in	r25, 0x08	; 8
     244:	9f 70       	andi	r25, 0x0F	; 15
     246:	98 b9       	out	0x08, r25	; 8
     248:	98 b1       	in	r25, 0x08	; 8
     24a:	82 95       	swap	r24
     24c:	80 7f       	andi	r24, 0xF0	; 240
     24e:	89 2b       	or	r24, r25
     250:	88 b9       	out	0x08, r24	; 8
     252:	40 9a       	sbi	0x08, 0	; 8
     254:	41 98       	cbi	0x08, 1	; 8
     256:	42 9a       	sbi	0x08, 2	; 8
     258:	8f ef       	ldi	r24, 0xFF	; 255
     25a:	97 e4       	ldi	r25, 0x47	; 71
     25c:	01 97       	sbiw	r24, 0x01	; 1
     25e:	f1 f7       	brne	.-4      	; 0x25c <lcd_wr_char+0x3e>
     260:	00 c0       	rjmp	.+0      	; 0x262 <lcd_wr_char+0x44>
     262:	00 00       	nop
     264:	42 98       	cbi	0x08, 2	; 8
     266:	08 95       	ret

00000268 <lcd_home>:
     268:	80 e8       	ldi	r24, 0x80	; 128
     26a:	a3 cf       	rjmp	.-186    	; 0x1b2 <lcd_wr_command>
     26c:	08 95       	ret

0000026e <lcd_string>:
     26e:	cf 93       	push	r28
     270:	df 93       	push	r29
     272:	ec 01       	movw	r28, r24
     274:	88 81       	ld	r24, Y
     276:	88 23       	and	r24, r24
     278:	29 f0       	breq	.+10     	; 0x284 <lcd_string+0x16>
     27a:	21 96       	adiw	r28, 0x01	; 1
     27c:	d0 df       	rcall	.-96     	; 0x21e <lcd_wr_char>
     27e:	89 91       	ld	r24, Y+
     280:	81 11       	cpse	r24, r1
     282:	fc cf       	rjmp	.-8      	; 0x27c <lcd_string+0xe>
     284:	df 91       	pop	r29
     286:	cf 91       	pop	r28
     288:	08 95       	ret

0000028a <lcd_cursor>:
     28a:	82 30       	cpi	r24, 0x02	; 2
     28c:	69 f0       	breq	.+26     	; 0x2a8 <lcd_cursor+0x1e>
     28e:	18 f4       	brcc	.+6      	; 0x296 <lcd_cursor+0xc>
     290:	81 30       	cpi	r24, 0x01	; 1
     292:	31 f0       	breq	.+12     	; 0x2a0 <lcd_cursor+0x16>
     294:	08 95       	ret
     296:	83 30       	cpi	r24, 0x03	; 3
     298:	59 f0       	breq	.+22     	; 0x2b0 <lcd_cursor+0x26>
     29a:	84 30       	cpi	r24, 0x04	; 4
     29c:	69 f0       	breq	.+26     	; 0x2b8 <lcd_cursor+0x2e>
     29e:	08 95       	ret
     2a0:	8f e7       	ldi	r24, 0x7F	; 127
     2a2:	86 0f       	add	r24, r22
     2a4:	86 cf       	rjmp	.-244    	; 0x1b2 <lcd_wr_command>
     2a6:	08 95       	ret
     2a8:	8f eb       	ldi	r24, 0xBF	; 191
     2aa:	86 0f       	add	r24, r22
     2ac:	82 cf       	rjmp	.-252    	; 0x1b2 <lcd_wr_command>
     2ae:	08 95       	ret
     2b0:	83 e9       	ldi	r24, 0x93	; 147
     2b2:	86 0f       	add	r24, r22
     2b4:	7e cf       	rjmp	.-260    	; 0x1b2 <lcd_wr_command>
     2b6:	08 95       	ret
     2b8:	83 ed       	ldi	r24, 0xD3	; 211
     2ba:	86 0f       	add	r24, r22
     2bc:	7a cf       	rjmp	.-268    	; 0x1b2 <lcd_wr_command>
     2be:	08 95       	ret

000002c0 <lcd_print>:
     2c0:	0f 93       	push	r16
     2c2:	1f 93       	push	r17
     2c4:	cf 93       	push	r28
     2c6:	df 93       	push	r29
     2c8:	8a 01       	movw	r16, r20
     2ca:	e9 01       	movw	r28, r18
     2cc:	88 23       	and	r24, r24
     2ce:	11 f0       	breq	.+4      	; 0x2d4 <lcd_print+0x14>
     2d0:	61 11       	cpse	r22, r1
     2d2:	02 c0       	rjmp	.+4      	; 0x2d8 <lcd_print+0x18>
     2d4:	c9 df       	rcall	.-110    	; 0x268 <lcd_home>
     2d6:	01 c0       	rjmp	.+2      	; 0x2da <lcd_print+0x1a>
     2d8:	d8 df       	rcall	.-80     	; 0x28a <lcd_cursor>
     2da:	c5 30       	cpi	r28, 0x05	; 5
     2dc:	d1 05       	cpc	r29, r1
     2de:	09 f0       	breq	.+2      	; 0x2e2 <lcd_print+0x22>
     2e0:	d5 c0       	rjmp	.+426    	; 0x48c <lcd_print+0x1cc>
     2e2:	98 01       	movw	r18, r16
     2e4:	32 95       	swap	r19
     2e6:	22 95       	swap	r18
     2e8:	2f 70       	andi	r18, 0x0F	; 15
     2ea:	23 27       	eor	r18, r19
     2ec:	3f 70       	andi	r19, 0x0F	; 15
     2ee:	23 27       	eor	r18, r19
     2f0:	a7 e4       	ldi	r26, 0x47	; 71
     2f2:	b3 e0       	ldi	r27, 0x03	; 3
     2f4:	0e 94 61 17 	call	0x2ec2	; 0x2ec2 <__umulhisi3>
     2f8:	96 95       	lsr	r25
     2fa:	87 95       	ror	r24
     2fc:	96 95       	lsr	r25
     2fe:	87 95       	ror	r24
     300:	96 95       	lsr	r25
     302:	87 95       	ror	r24
     304:	c0 96       	adiw	r24, 0x30	; 48
     306:	90 93 75 02 	sts	0x0275, r25
     30a:	80 93 74 02 	sts	0x0274, r24
     30e:	87 df       	rcall	.-242    	; 0x21e <lcd_wr_char>
     310:	98 01       	movw	r18, r16
     312:	36 95       	lsr	r19
     314:	27 95       	ror	r18
     316:	36 95       	lsr	r19
     318:	27 95       	ror	r18
     31a:	36 95       	lsr	r19
     31c:	27 95       	ror	r18
     31e:	a5 ec       	ldi	r26, 0xC5	; 197
     320:	b0 e2       	ldi	r27, 0x20	; 32
     322:	0e 94 61 17 	call	0x2ec2	; 0x2ec2 <__umulhisi3>
     326:	ac 01       	movw	r20, r24
     328:	52 95       	swap	r21
     32a:	42 95       	swap	r20
     32c:	4f 70       	andi	r20, 0x0F	; 15
     32e:	45 27       	eor	r20, r21
     330:	5f 70       	andi	r21, 0x0F	; 15
     332:	45 27       	eor	r20, r21
     334:	50 93 79 02 	sts	0x0279, r21
     338:	40 93 78 02 	sts	0x0278, r20
     33c:	9a 01       	movw	r18, r20
     33e:	ad ec       	ldi	r26, 0xCD	; 205
     340:	bc ec       	ldi	r27, 0xCC	; 204
     342:	0e 94 61 17 	call	0x2ec2	; 0x2ec2 <__umulhisi3>
     346:	96 95       	lsr	r25
     348:	87 95       	ror	r24
     34a:	96 95       	lsr	r25
     34c:	87 95       	ror	r24
     34e:	96 95       	lsr	r25
     350:	87 95       	ror	r24
     352:	9c 01       	movw	r18, r24
     354:	22 0f       	add	r18, r18
     356:	33 1f       	adc	r19, r19
     358:	88 0f       	add	r24, r24
     35a:	99 1f       	adc	r25, r25
     35c:	88 0f       	add	r24, r24
     35e:	99 1f       	adc	r25, r25
     360:	88 0f       	add	r24, r24
     362:	99 1f       	adc	r25, r25
     364:	82 0f       	add	r24, r18
     366:	93 1f       	adc	r25, r19
     368:	48 1b       	sub	r20, r24
     36a:	59 0b       	sbc	r21, r25
     36c:	ca 01       	movw	r24, r20
     36e:	c0 96       	adiw	r24, 0x30	; 48
     370:	90 93 ba 02 	sts	0x02BA, r25
     374:	80 93 b9 02 	sts	0x02B9, r24
     378:	52 df       	rcall	.-348    	; 0x21e <lcd_wr_char>
     37a:	04 c0       	rjmp	.+8      	; 0x384 <lcd_print+0xc4>
     37c:	c3 30       	cpi	r28, 0x03	; 3
     37e:	d1 05       	cpc	r29, r1
     380:	09 f0       	breq	.+2      	; 0x384 <lcd_print+0xc4>
     382:	89 c0       	rjmp	.+274    	; 0x496 <lcd_print+0x1d6>
     384:	98 01       	movw	r18, r16
     386:	36 95       	lsr	r19
     388:	27 95       	ror	r18
     38a:	36 95       	lsr	r19
     38c:	27 95       	ror	r18
     38e:	ab e7       	ldi	r26, 0x7B	; 123
     390:	b4 e1       	ldi	r27, 0x14	; 20
     392:	0e 94 61 17 	call	0x2ec2	; 0x2ec2 <__umulhisi3>
     396:	ac 01       	movw	r20, r24
     398:	56 95       	lsr	r21
     39a:	47 95       	ror	r20
     39c:	50 93 79 02 	sts	0x0279, r21
     3a0:	40 93 78 02 	sts	0x0278, r20
     3a4:	9a 01       	movw	r18, r20
     3a6:	ad ec       	ldi	r26, 0xCD	; 205
     3a8:	bc ec       	ldi	r27, 0xCC	; 204
     3aa:	0e 94 61 17 	call	0x2ec2	; 0x2ec2 <__umulhisi3>
     3ae:	96 95       	lsr	r25
     3b0:	87 95       	ror	r24
     3b2:	96 95       	lsr	r25
     3b4:	87 95       	ror	r24
     3b6:	96 95       	lsr	r25
     3b8:	87 95       	ror	r24
     3ba:	9c 01       	movw	r18, r24
     3bc:	22 0f       	add	r18, r18
     3be:	33 1f       	adc	r19, r19
     3c0:	88 0f       	add	r24, r24
     3c2:	99 1f       	adc	r25, r25
     3c4:	88 0f       	add	r24, r24
     3c6:	99 1f       	adc	r25, r25
     3c8:	88 0f       	add	r24, r24
     3ca:	99 1f       	adc	r25, r25
     3cc:	82 0f       	add	r24, r18
     3ce:	93 1f       	adc	r25, r19
     3d0:	48 1b       	sub	r20, r24
     3d2:	59 0b       	sbc	r21, r25
     3d4:	ca 01       	movw	r24, r20
     3d6:	c0 96       	adiw	r24, 0x30	; 48
     3d8:	90 93 b0 02 	sts	0x02B0, r25
     3dc:	80 93 af 02 	sts	0x02AF, r24
     3e0:	1e df       	rcall	.-452    	; 0x21e <lcd_wr_char>
     3e2:	98 01       	movw	r18, r16
     3e4:	ad ec       	ldi	r26, 0xCD	; 205
     3e6:	bc ec       	ldi	r27, 0xCC	; 204
     3e8:	0e 94 61 17 	call	0x2ec2	; 0x2ec2 <__umulhisi3>
     3ec:	ac 01       	movw	r20, r24
     3ee:	56 95       	lsr	r21
     3f0:	47 95       	ror	r20
     3f2:	56 95       	lsr	r21
     3f4:	47 95       	ror	r20
     3f6:	56 95       	lsr	r21
     3f8:	47 95       	ror	r20
     3fa:	50 93 79 02 	sts	0x0279, r21
     3fe:	40 93 78 02 	sts	0x0278, r20
     402:	9a 01       	movw	r18, r20
     404:	0e 94 61 17 	call	0x2ec2	; 0x2ec2 <__umulhisi3>
     408:	96 95       	lsr	r25
     40a:	87 95       	ror	r24
     40c:	96 95       	lsr	r25
     40e:	87 95       	ror	r24
     410:	96 95       	lsr	r25
     412:	87 95       	ror	r24
     414:	9c 01       	movw	r18, r24
     416:	22 0f       	add	r18, r18
     418:	33 1f       	adc	r19, r19
     41a:	88 0f       	add	r24, r24
     41c:	99 1f       	adc	r25, r25
     41e:	88 0f       	add	r24, r24
     420:	99 1f       	adc	r25, r25
     422:	88 0f       	add	r24, r24
     424:	99 1f       	adc	r25, r25
     426:	82 0f       	add	r24, r18
     428:	93 1f       	adc	r25, r19
     42a:	48 1b       	sub	r20, r24
     42c:	59 0b       	sbc	r21, r25
     42e:	ca 01       	movw	r24, r20
     430:	c0 96       	adiw	r24, 0x30	; 48
     432:	90 93 8a 02 	sts	0x028A, r25
     436:	80 93 89 02 	sts	0x0289, r24
     43a:	f1 de       	rcall	.-542    	; 0x21e <lcd_wr_char>
     43c:	03 c0       	rjmp	.+6      	; 0x444 <lcd_print+0x184>
     43e:	c1 30       	cpi	r28, 0x01	; 1
     440:	d1 05       	cpc	r29, r1
     442:	f9 f4       	brne	.+62     	; 0x482 <lcd_print+0x1c2>
     444:	98 01       	movw	r18, r16
     446:	ad ec       	ldi	r26, 0xCD	; 205
     448:	bc ec       	ldi	r27, 0xCC	; 204
     44a:	0e 94 61 17 	call	0x2ec2	; 0x2ec2 <__umulhisi3>
     44e:	96 95       	lsr	r25
     450:	87 95       	ror	r24
     452:	96 95       	lsr	r25
     454:	87 95       	ror	r24
     456:	96 95       	lsr	r25
     458:	87 95       	ror	r24
     45a:	9c 01       	movw	r18, r24
     45c:	22 0f       	add	r18, r18
     45e:	33 1f       	adc	r19, r19
     460:	88 0f       	add	r24, r24
     462:	99 1f       	adc	r25, r25
     464:	88 0f       	add	r24, r24
     466:	99 1f       	adc	r25, r25
     468:	88 0f       	add	r24, r24
     46a:	99 1f       	adc	r25, r25
     46c:	82 0f       	add	r24, r18
     46e:	93 1f       	adc	r25, r19
     470:	08 1b       	sub	r16, r24
     472:	19 0b       	sbc	r17, r25
     474:	c8 01       	movw	r24, r16
     476:	c0 96       	adiw	r24, 0x30	; 48
     478:	90 93 b8 02 	sts	0x02B8, r25
     47c:	80 93 b7 02 	sts	0x02B7, r24
     480:	ce de       	rcall	.-612    	; 0x21e <lcd_wr_char>
     482:	26 97       	sbiw	r28, 0x06	; 6
     484:	64 f0       	brlt	.+24     	; 0x49e <lcd_print+0x1de>
     486:	85 e4       	ldi	r24, 0x45	; 69
     488:	ca de       	rcall	.-620    	; 0x21e <lcd_wr_char>
     48a:	09 c0       	rjmp	.+18     	; 0x49e <lcd_print+0x1de>
     48c:	c4 30       	cpi	r28, 0x04	; 4
     48e:	d1 05       	cpc	r29, r1
     490:	09 f0       	breq	.+2      	; 0x494 <lcd_print+0x1d4>
     492:	74 cf       	rjmp	.-280    	; 0x37c <lcd_print+0xbc>
     494:	3d cf       	rjmp	.-390    	; 0x310 <lcd_print+0x50>
     496:	c2 30       	cpi	r28, 0x02	; 2
     498:	d1 05       	cpc	r29, r1
     49a:	89 f6       	brne	.-94     	; 0x43e <lcd_print+0x17e>
     49c:	a2 cf       	rjmp	.-188    	; 0x3e2 <lcd_print+0x122>
     49e:	df 91       	pop	r29
     4a0:	cf 91       	pop	r28
     4a2:	1f 91       	pop	r17
     4a4:	0f 91       	pop	r16
     4a6:	08 95       	ret

000004a8 <timer5_init>:
     4a8:	e1 e2       	ldi	r30, 0x21	; 33
     4aa:	f1 e0       	ldi	r31, 0x01	; 1
     4ac:	10 82       	st	Z, r1
     4ae:	8f ef       	ldi	r24, 0xFF	; 255
     4b0:	80 93 25 01 	sts	0x0125, r24
     4b4:	91 e0       	ldi	r25, 0x01	; 1
     4b6:	90 93 24 01 	sts	0x0124, r25
     4ba:	10 92 29 01 	sts	0x0129, r1
     4be:	80 93 28 01 	sts	0x0128, r24
     4c2:	10 92 2b 01 	sts	0x012B, r1
     4c6:	80 93 2a 01 	sts	0x012A, r24
     4ca:	10 92 2d 01 	sts	0x012D, r1
     4ce:	80 93 2c 01 	sts	0x012C, r24
     4d2:	89 ea       	ldi	r24, 0xA9	; 169
     4d4:	80 93 20 01 	sts	0x0120, r24
     4d8:	8b e0       	ldi	r24, 0x0B	; 11
     4da:	80 83       	st	Z, r24
     4dc:	08 95       	ret

000004de <motion_pin_config>:
     4de:	81 b1       	in	r24, 0x01	; 1
     4e0:	8f 60       	ori	r24, 0x0F	; 15
     4e2:	81 b9       	out	0x01, r24	; 1
     4e4:	82 b1       	in	r24, 0x02	; 2
     4e6:	80 7f       	andi	r24, 0xF0	; 240
     4e8:	82 b9       	out	0x02, r24	; 2
     4ea:	ea e0       	ldi	r30, 0x0A	; 10
     4ec:	f1 e0       	ldi	r31, 0x01	; 1
     4ee:	80 81       	ld	r24, Z
     4f0:	88 61       	ori	r24, 0x18	; 24
     4f2:	80 83       	st	Z, r24
     4f4:	eb e0       	ldi	r30, 0x0B	; 11
     4f6:	f1 e0       	ldi	r31, 0x01	; 1
     4f8:	80 81       	ld	r24, Z
     4fa:	88 61       	ori	r24, 0x18	; 24
     4fc:	80 83       	st	Z, r24
     4fe:	08 95       	ret

00000500 <motion_set>:
     500:	92 b1       	in	r25, 0x02	; 2
     502:	90 7f       	andi	r25, 0xF0	; 240
     504:	8f 70       	andi	r24, 0x0F	; 15
     506:	98 2b       	or	r25, r24
     508:	92 b9       	out	0x02, r25	; 2
     50a:	08 95       	ret

0000050c <forward>:
     50c:	86 e0       	ldi	r24, 0x06	; 6
     50e:	f8 cf       	rjmp	.-16     	; 0x500 <motion_set>
     510:	08 95       	ret

00000512 <back>:
     512:	89 e0       	ldi	r24, 0x09	; 9
     514:	f5 cf       	rjmp	.-22     	; 0x500 <motion_set>
     516:	08 95       	ret

00000518 <left>:
     518:	85 e0       	ldi	r24, 0x05	; 5
     51a:	f2 cf       	rjmp	.-28     	; 0x500 <motion_set>
     51c:	08 95       	ret

0000051e <right>:
     51e:	8a e0       	ldi	r24, 0x0A	; 10
     520:	ef cf       	rjmp	.-34     	; 0x500 <motion_set>
     522:	08 95       	ret

00000524 <stop>:
     524:	80 e0       	ldi	r24, 0x00	; 0
     526:	ec cf       	rjmp	.-40     	; 0x500 <motion_set>
     528:	08 95       	ret

0000052a <lcd_port_config>:
     52a:	87 b1       	in	r24, 0x07	; 7
     52c:	87 6f       	ori	r24, 0xF7	; 247
     52e:	87 b9       	out	0x07, r24	; 7
     530:	88 b1       	in	r24, 0x08	; 8
     532:	80 78       	andi	r24, 0x80	; 128
     534:	88 b9       	out	0x08, r24	; 8
     536:	08 95       	ret

00000538 <color_sensor_pin_config>:
     538:	8a b1       	in	r24, 0x0a	; 10
     53a:	8e 6f       	ori	r24, 0xFE	; 254
     53c:	8a b9       	out	0x0a, r24	; 10
     53e:	58 9a       	sbi	0x0b, 0	; 11
     540:	08 95       	ret

00000542 <adc_pin_config>:
     542:	10 ba       	out	0x10, r1	; 16
     544:	11 ba       	out	0x11, r1	; 17
     546:	10 92 07 01 	sts	0x0107, r1
     54a:	10 92 08 01 	sts	0x0108, r1
     54e:	08 95       	ret

00000550 <servo1_pin_config>:
     550:	25 9a       	sbi	0x04, 5	; 4
     552:	2d 9a       	sbi	0x05, 5	; 5
     554:	08 95       	ret

00000556 <servo2_pin_config>:
     556:	26 9a       	sbi	0x04, 6	; 4
     558:	2e 9a       	sbi	0x05, 6	; 5
     55a:	08 95       	ret

0000055c <servo3_pin_config>:
     55c:	27 9a       	sbi	0x04, 7	; 4
     55e:	2f 9a       	sbi	0x05, 7	; 5
     560:	08 95       	ret

00000562 <timer1_init>:
     562:	e1 e8       	ldi	r30, 0x81	; 129
     564:	f0 e0       	ldi	r31, 0x00	; 0
     566:	10 82       	st	Z, r1
     568:	8c ef       	ldi	r24, 0xFC	; 252
     56a:	80 93 85 00 	sts	0x0085, r24
     56e:	81 e0       	ldi	r24, 0x01	; 1
     570:	80 93 84 00 	sts	0x0084, r24
     574:	93 e0       	ldi	r25, 0x03	; 3
     576:	90 93 89 00 	sts	0x0089, r25
     57a:	8f ef       	ldi	r24, 0xFF	; 255
     57c:	80 93 88 00 	sts	0x0088, r24
     580:	90 93 8b 00 	sts	0x008B, r25
     584:	80 93 8a 00 	sts	0x008A, r24
     588:	90 93 8d 00 	sts	0x008D, r25
     58c:	80 93 8c 00 	sts	0x008C, r24
     590:	90 93 87 00 	sts	0x0087, r25
     594:	80 93 86 00 	sts	0x0086, r24
     598:	8b ea       	ldi	r24, 0xAB	; 171
     59a:	80 93 80 00 	sts	0x0080, r24
     59e:	10 92 82 00 	sts	0x0082, r1
     5a2:	8c e0       	ldi	r24, 0x0C	; 12
     5a4:	80 83       	st	Z, r24
     5a6:	08 95       	ret

000005a8 <port_init>:
     5a8:	c0 df       	rcall	.-128    	; 0x52a <lcd_port_config>
     5aa:	cb df       	rcall	.-106    	; 0x542 <adc_pin_config>
     5ac:	3b 9a       	sbi	0x07, 3	; 7
     5ae:	43 98       	cbi	0x08, 3	; 8
     5b0:	cf df       	rcall	.-98     	; 0x550 <servo1_pin_config>
     5b2:	d1 df       	rcall	.-94     	; 0x556 <servo2_pin_config>
     5b4:	d3 df       	rcall	.-90     	; 0x55c <servo3_pin_config>
     5b6:	c0 cf       	rjmp	.-128    	; 0x538 <color_sensor_pin_config>
     5b8:	08 95       	ret

000005ba <buzzer_on>:
     5ba:	86 b1       	in	r24, 0x06	; 6
     5bc:	88 60       	ori	r24, 0x08	; 8
     5be:	88 b9       	out	0x08, r24	; 8
     5c0:	08 95       	ret

000005c2 <buzzer_off>:
     5c2:	86 b1       	in	r24, 0x06	; 6
     5c4:	87 7f       	andi	r24, 0xF7	; 247
     5c6:	88 b9       	out	0x08, r24	; 8
     5c8:	08 95       	ret

000005ca <ADC_Conversion>:
     5ca:	88 30       	cpi	r24, 0x08	; 8
     5cc:	18 f0       	brcs	.+6      	; 0x5d4 <ADC_Conversion+0xa>
     5ce:	98 e0       	ldi	r25, 0x08	; 8
     5d0:	90 93 7b 00 	sts	0x007B, r25
     5d4:	87 70       	andi	r24, 0x07	; 7
     5d6:	80 62       	ori	r24, 0x20	; 32
     5d8:	80 93 7c 00 	sts	0x007C, r24
     5dc:	ea e7       	ldi	r30, 0x7A	; 122
     5de:	f0 e0       	ldi	r31, 0x00	; 0
     5e0:	80 81       	ld	r24, Z
     5e2:	80 64       	ori	r24, 0x40	; 64
     5e4:	80 83       	st	Z, r24
     5e6:	80 81       	ld	r24, Z
     5e8:	84 ff       	sbrs	r24, 4
     5ea:	fd cf       	rjmp	.-6      	; 0x5e6 <ADC_Conversion+0x1c>
     5ec:	80 91 79 00 	lds	r24, 0x0079
     5f0:	ea e7       	ldi	r30, 0x7A	; 122
     5f2:	f0 e0       	ldi	r31, 0x00	; 0
     5f4:	90 81       	ld	r25, Z
     5f6:	90 61       	ori	r25, 0x10	; 16
     5f8:	90 83       	st	Z, r25
     5fa:	10 92 7b 00 	sts	0x007B, r1
     5fe:	08 95       	ret

00000600 <color_sensor_pin_interrupt_init>:
     600:	f8 94       	cli
     602:	e9 e6       	ldi	r30, 0x69	; 105
     604:	f0 e0       	ldi	r31, 0x00	; 0
     606:	80 81       	ld	r24, Z
     608:	82 60       	ori	r24, 0x02	; 2
     60a:	80 83       	st	Z, r24
     60c:	e8 9a       	sbi	0x1d, 0	; 29
     60e:	78 94       	sei
     610:	08 95       	ret

00000612 <__vector_1>:
     612:	1f 92       	push	r1
     614:	0f 92       	push	r0
     616:	0f b6       	in	r0, 0x3f	; 63
     618:	0f 92       	push	r0
     61a:	11 24       	eor	r1, r1
     61c:	8f 93       	push	r24
     61e:	9f 93       	push	r25
     620:	af 93       	push	r26
     622:	bf 93       	push	r27
     624:	80 91 58 02 	lds	r24, 0x0258
     628:	90 91 59 02 	lds	r25, 0x0259
     62c:	a0 91 5a 02 	lds	r26, 0x025A
     630:	b0 91 5b 02 	lds	r27, 0x025B
     634:	01 96       	adiw	r24, 0x01	; 1
     636:	a1 1d       	adc	r26, r1
     638:	b1 1d       	adc	r27, r1
     63a:	80 93 58 02 	sts	0x0258, r24
     63e:	90 93 59 02 	sts	0x0259, r25
     642:	a0 93 5a 02 	sts	0x025A, r26
     646:	b0 93 5b 02 	sts	0x025B, r27
     64a:	bf 91       	pop	r27
     64c:	af 91       	pop	r26
     64e:	9f 91       	pop	r25
     650:	8f 91       	pop	r24
     652:	0f 90       	pop	r0
     654:	0f be       	out	0x3f, r0	; 63
     656:	0f 90       	pop	r0
     658:	1f 90       	pop	r1
     65a:	18 95       	reti

0000065c <adc_init>:
     65c:	ea e7       	ldi	r30, 0x7A	; 122
     65e:	f0 e0       	ldi	r31, 0x00	; 0
     660:	10 82       	st	Z, r1
     662:	10 92 7b 00 	sts	0x007B, r1
     666:	80 e2       	ldi	r24, 0x20	; 32
     668:	80 93 7c 00 	sts	0x007C, r24
     66c:	80 e8       	ldi	r24, 0x80	; 128
     66e:	80 bf       	out	0x30, r24	; 48
     670:	86 e8       	ldi	r24, 0x86	; 134
     672:	80 83       	st	Z, r24
     674:	08 95       	ret

00000676 <servo_1>:
     676:	10 92 89 00 	sts	0x0089, r1
     67a:	68 2f       	mov	r22, r24
     67c:	70 e0       	ldi	r23, 0x00	; 0
     67e:	80 e0       	ldi	r24, 0x00	; 0
     680:	90 e0       	ldi	r25, 0x00	; 0
     682:	0e 94 c0 16 	call	0x2d80	; 0x2d80 <__floatunsisf>
     686:	2b e7       	ldi	r18, 0x7B	; 123
     688:	34 e1       	ldi	r19, 0x14	; 20
     68a:	4e ee       	ldi	r20, 0xEE	; 238
     68c:	5f e3       	ldi	r21, 0x3F	; 63
     68e:	0e 94 2c 16 	call	0x2c58	; 0x2c58 <__divsf3>
     692:	20 e0       	ldi	r18, 0x00	; 0
     694:	30 e0       	ldi	r19, 0x00	; 0
     696:	4c e0       	ldi	r20, 0x0C	; 12
     698:	52 e4       	ldi	r21, 0x42	; 66
     69a:	0e 94 c8 15 	call	0x2b90	; 0x2b90 <__addsf3>
     69e:	0e 94 94 16 	call	0x2d28	; 0x2d28 <__fixunssfsi>
     6a2:	60 93 88 00 	sts	0x0088, r22
     6a6:	08 95       	ret

000006a8 <filter_red>:
     6a8:	5e 98       	cbi	0x0b, 6	; 11
     6aa:	5f 98       	cbi	0x0b, 7	; 11
     6ac:	08 95       	ret

000006ae <filter_green>:
     6ae:	5e 9a       	sbi	0x0b, 6	; 11
     6b0:	5f 9a       	sbi	0x0b, 7	; 11
     6b2:	08 95       	ret

000006b4 <filter_blue>:
     6b4:	5e 98       	cbi	0x0b, 6	; 11
     6b6:	5f 9a       	sbi	0x0b, 7	; 11
     6b8:	08 95       	ret

000006ba <color_sensor_scaling>:
     6ba:	5c 9a       	sbi	0x0b, 4	; 11
     6bc:	5d 9a       	sbi	0x0b, 5	; 11
     6be:	08 95       	ret

000006c0 <red_read>:
     6c0:	f3 df       	rcall	.-26     	; 0x6a8 <filter_red>
     6c2:	10 92 58 02 	sts	0x0258, r1
     6c6:	10 92 59 02 	sts	0x0259, r1
     6ca:	10 92 5a 02 	sts	0x025A, r1
     6ce:	10 92 5b 02 	sts	0x025B, r1
     6d2:	2f ef       	ldi	r18, 0xFF	; 255
     6d4:	8f e7       	ldi	r24, 0x7F	; 127
     6d6:	94 e0       	ldi	r25, 0x04	; 4
     6d8:	21 50       	subi	r18, 0x01	; 1
     6da:	80 40       	sbci	r24, 0x00	; 0
     6dc:	90 40       	sbci	r25, 0x00	; 0
     6de:	e1 f7       	brne	.-8      	; 0x6d8 <red_read+0x18>
     6e0:	00 c0       	rjmp	.+0      	; 0x6e2 <red_read+0x22>
     6e2:	00 00       	nop
     6e4:	80 91 58 02 	lds	r24, 0x0258
     6e8:	90 91 59 02 	lds	r25, 0x0259
     6ec:	a0 91 5a 02 	lds	r26, 0x025A
     6f0:	b0 91 5b 02 	lds	r27, 0x025B
     6f4:	80 93 7e 02 	sts	0x027E, r24
     6f8:	90 93 7f 02 	sts	0x027F, r25
     6fc:	a0 93 80 02 	sts	0x0280, r26
     700:	b0 93 81 02 	sts	0x0281, r27
     704:	2f ef       	ldi	r18, 0xFF	; 255
     706:	8f ef       	ldi	r24, 0xFF	; 255
     708:	9c e2       	ldi	r25, 0x2C	; 44
     70a:	21 50       	subi	r18, 0x01	; 1
     70c:	80 40       	sbci	r24, 0x00	; 0
     70e:	90 40       	sbci	r25, 0x00	; 0
     710:	e1 f7       	brne	.-8      	; 0x70a <red_read+0x4a>
     712:	00 c0       	rjmp	.+0      	; 0x714 <red_read+0x54>
     714:	00 00       	nop
     716:	08 95       	ret

00000718 <green_read>:
     718:	ca df       	rcall	.-108    	; 0x6ae <filter_green>
     71a:	10 92 58 02 	sts	0x0258, r1
     71e:	10 92 59 02 	sts	0x0259, r1
     722:	10 92 5a 02 	sts	0x025A, r1
     726:	10 92 5b 02 	sts	0x025B, r1
     72a:	2f ef       	ldi	r18, 0xFF	; 255
     72c:	8f e7       	ldi	r24, 0x7F	; 127
     72e:	94 e0       	ldi	r25, 0x04	; 4
     730:	21 50       	subi	r18, 0x01	; 1
     732:	80 40       	sbci	r24, 0x00	; 0
     734:	90 40       	sbci	r25, 0x00	; 0
     736:	e1 f7       	brne	.-8      	; 0x730 <green_read+0x18>
     738:	00 c0       	rjmp	.+0      	; 0x73a <green_read+0x22>
     73a:	00 00       	nop
     73c:	80 91 58 02 	lds	r24, 0x0258
     740:	90 91 59 02 	lds	r25, 0x0259
     744:	a0 91 5a 02 	lds	r26, 0x025A
     748:	b0 91 5b 02 	lds	r27, 0x025B
     74c:	80 93 7a 02 	sts	0x027A, r24
     750:	90 93 7b 02 	sts	0x027B, r25
     754:	a0 93 7c 02 	sts	0x027C, r26
     758:	b0 93 7d 02 	sts	0x027D, r27
     75c:	08 95       	ret

0000075e <blue_read>:
     75e:	aa df       	rcall	.-172    	; 0x6b4 <filter_blue>
     760:	10 92 58 02 	sts	0x0258, r1
     764:	10 92 59 02 	sts	0x0259, r1
     768:	10 92 5a 02 	sts	0x025A, r1
     76c:	10 92 5b 02 	sts	0x025B, r1
     770:	2f ef       	ldi	r18, 0xFF	; 255
     772:	8f e7       	ldi	r24, 0x7F	; 127
     774:	94 e0       	ldi	r25, 0x04	; 4
     776:	21 50       	subi	r18, 0x01	; 1
     778:	80 40       	sbci	r24, 0x00	; 0
     77a:	90 40       	sbci	r25, 0x00	; 0
     77c:	e1 f7       	brne	.-8      	; 0x776 <blue_read+0x18>
     77e:	00 c0       	rjmp	.+0      	; 0x780 <blue_read+0x22>
     780:	00 00       	nop
     782:	80 91 58 02 	lds	r24, 0x0258
     786:	90 91 59 02 	lds	r25, 0x0259
     78a:	a0 91 5a 02 	lds	r26, 0x025A
     78e:	b0 91 5b 02 	lds	r27, 0x025B
     792:	80 93 6e 02 	sts	0x026E, r24
     796:	90 93 6f 02 	sts	0x026F, r25
     79a:	a0 93 70 02 	sts	0x0270, r26
     79e:	b0 93 71 02 	sts	0x0271, r27
     7a2:	08 95       	ret

000007a4 <left_encoder_pin_config>:
     7a4:	6c 98       	cbi	0x0d, 4	; 13
     7a6:	74 9a       	sbi	0x0e, 4	; 14
     7a8:	08 95       	ret

000007aa <right_encoder_pin_config>:
     7aa:	6d 98       	cbi	0x0d, 5	; 13
     7ac:	75 9a       	sbi	0x0e, 5	; 14
     7ae:	08 95       	ret

000007b0 <port_init_poz>:
     7b0:	96 de       	rcall	.-724    	; 0x4de <motion_pin_config>
     7b2:	f8 df       	rcall	.-16     	; 0x7a4 <left_encoder_pin_config>
     7b4:	fa cf       	rjmp	.-12     	; 0x7aa <right_encoder_pin_config>
     7b6:	08 95       	ret

000007b8 <left_position_encoder_interrupt_init>:
     7b8:	f8 94       	cli
     7ba:	ea e6       	ldi	r30, 0x6A	; 106
     7bc:	f0 e0       	ldi	r31, 0x00	; 0
     7be:	80 81       	ld	r24, Z
     7c0:	82 60       	ori	r24, 0x02	; 2
     7c2:	80 83       	st	Z, r24
     7c4:	ec 9a       	sbi	0x1d, 4	; 29
     7c6:	78 94       	sei
     7c8:	08 95       	ret

000007ca <right_position_encoder_interrupt_init>:
     7ca:	f8 94       	cli
     7cc:	ea e6       	ldi	r30, 0x6A	; 106
     7ce:	f0 e0       	ldi	r31, 0x00	; 0
     7d0:	80 81       	ld	r24, Z
     7d2:	88 60       	ori	r24, 0x08	; 8
     7d4:	80 83       	st	Z, r24
     7d6:	ed 9a       	sbi	0x1d, 5	; 29
     7d8:	78 94       	sei
     7da:	08 95       	ret

000007dc <__vector_6>:
     7dc:	1f 92       	push	r1
     7de:	0f 92       	push	r0
     7e0:	0f b6       	in	r0, 0x3f	; 63
     7e2:	0f 92       	push	r0
     7e4:	11 24       	eor	r1, r1
     7e6:	8f 93       	push	r24
     7e8:	9f 93       	push	r25
     7ea:	af 93       	push	r26
     7ec:	bf 93       	push	r27
     7ee:	80 91 5c 02 	lds	r24, 0x025C
     7f2:	90 91 5d 02 	lds	r25, 0x025D
     7f6:	a0 91 5e 02 	lds	r26, 0x025E
     7fa:	b0 91 5f 02 	lds	r27, 0x025F
     7fe:	01 96       	adiw	r24, 0x01	; 1
     800:	a1 1d       	adc	r26, r1
     802:	b1 1d       	adc	r27, r1
     804:	80 93 5c 02 	sts	0x025C, r24
     808:	90 93 5d 02 	sts	0x025D, r25
     80c:	a0 93 5e 02 	sts	0x025E, r26
     810:	b0 93 5f 02 	sts	0x025F, r27
     814:	bf 91       	pop	r27
     816:	af 91       	pop	r26
     818:	9f 91       	pop	r25
     81a:	8f 91       	pop	r24
     81c:	0f 90       	pop	r0
     81e:	0f be       	out	0x3f, r0	; 63
     820:	0f 90       	pop	r0
     822:	1f 90       	pop	r1
     824:	18 95       	reti

00000826 <__vector_5>:
     826:	1f 92       	push	r1
     828:	0f 92       	push	r0
     82a:	0f b6       	in	r0, 0x3f	; 63
     82c:	0f 92       	push	r0
     82e:	11 24       	eor	r1, r1
     830:	8f 93       	push	r24
     832:	9f 93       	push	r25
     834:	af 93       	push	r26
     836:	bf 93       	push	r27
     838:	80 91 60 02 	lds	r24, 0x0260
     83c:	90 91 61 02 	lds	r25, 0x0261
     840:	a0 91 62 02 	lds	r26, 0x0262
     844:	b0 91 63 02 	lds	r27, 0x0263
     848:	01 96       	adiw	r24, 0x01	; 1
     84a:	a1 1d       	adc	r26, r1
     84c:	b1 1d       	adc	r27, r1
     84e:	80 93 60 02 	sts	0x0260, r24
     852:	90 93 61 02 	sts	0x0261, r25
     856:	a0 93 62 02 	sts	0x0262, r26
     85a:	b0 93 63 02 	sts	0x0263, r27
     85e:	bf 91       	pop	r27
     860:	af 91       	pop	r26
     862:	9f 91       	pop	r25
     864:	8f 91       	pop	r24
     866:	0f 90       	pop	r0
     868:	0f be       	out	0x3f, r0	; 63
     86a:	0f 90       	pop	r0
     86c:	1f 90       	pop	r1
     86e:	18 95       	reti

00000870 <angle_rotate>:
     870:	cf 92       	push	r12
     872:	df 92       	push	r13
     874:	ef 92       	push	r14
     876:	ff 92       	push	r15
     878:	0f 93       	push	r16
     87a:	1f 93       	push	r17
     87c:	bc 01       	movw	r22, r24
     87e:	80 e0       	ldi	r24, 0x00	; 0
     880:	90 e0       	ldi	r25, 0x00	; 0
     882:	0e 94 c0 16 	call	0x2d80	; 0x2d80 <__floatunsisf>
     886:	28 e4       	ldi	r18, 0x48	; 72
     888:	31 ee       	ldi	r19, 0xE1	; 225
     88a:	42 e8       	ldi	r20, 0x82	; 130
     88c:	50 e4       	ldi	r21, 0x40	; 64
     88e:	0e 94 2c 16 	call	0x2c58	; 0x2c58 <__divsf3>
     892:	0e 94 94 16 	call	0x2d28	; 0x2d28 <__fixunssfsi>
     896:	cb 01       	movw	r24, r22
     898:	a0 e0       	ldi	r26, 0x00	; 0
     89a:	b0 e0       	ldi	r27, 0x00	; 0
     89c:	10 92 5c 02 	sts	0x025C, r1
     8a0:	10 92 5d 02 	sts	0x025D, r1
     8a4:	10 92 5e 02 	sts	0x025E, r1
     8a8:	10 92 5f 02 	sts	0x025F, r1
     8ac:	10 92 60 02 	sts	0x0260, r1
     8b0:	10 92 61 02 	sts	0x0261, r1
     8b4:	10 92 62 02 	sts	0x0262, r1
     8b8:	10 92 63 02 	sts	0x0263, r1
     8bc:	51 e0       	ldi	r21, 0x01	; 1
     8be:	e0 e0       	ldi	r30, 0x00	; 0
     8c0:	c0 90 5c 02 	lds	r12, 0x025C
     8c4:	d0 90 5d 02 	lds	r13, 0x025D
     8c8:	e0 90 5e 02 	lds	r14, 0x025E
     8cc:	f0 90 5f 02 	lds	r15, 0x025F
     8d0:	00 91 60 02 	lds	r16, 0x0260
     8d4:	10 91 61 02 	lds	r17, 0x0261
     8d8:	20 91 62 02 	lds	r18, 0x0262
     8dc:	30 91 63 02 	lds	r19, 0x0263
     8e0:	45 2f       	mov	r20, r21
     8e2:	08 17       	cp	r16, r24
     8e4:	19 07       	cpc	r17, r25
     8e6:	2a 07       	cpc	r18, r26
     8e8:	3b 07       	cpc	r19, r27
     8ea:	08 f4       	brcc	.+2      	; 0x8ee <angle_rotate+0x7e>
     8ec:	4e 2f       	mov	r20, r30
     8ee:	41 11       	cpse	r20, r1
     8f0:	09 c0       	rjmp	.+18     	; 0x904 <angle_rotate+0x94>
     8f2:	25 2f       	mov	r18, r21
     8f4:	c8 16       	cp	r12, r24
     8f6:	d9 06       	cpc	r13, r25
     8f8:	ea 06       	cpc	r14, r26
     8fa:	fb 06       	cpc	r15, r27
     8fc:	08 f4       	brcc	.+2      	; 0x900 <angle_rotate+0x90>
     8fe:	2e 2f       	mov	r18, r30
     900:	22 23       	and	r18, r18
     902:	f1 f2       	breq	.-68     	; 0x8c0 <angle_rotate+0x50>
     904:	0f de       	rcall	.-994    	; 0x524 <stop>
     906:	1f 91       	pop	r17
     908:	0f 91       	pop	r16
     90a:	ff 90       	pop	r15
     90c:	ef 90       	pop	r14
     90e:	df 90       	pop	r13
     910:	cf 90       	pop	r12
     912:	08 95       	ret

00000914 <linear_distance_mm>:
     914:	0f 93       	push	r16
     916:	1f 93       	push	r17
     918:	bc 01       	movw	r22, r24
     91a:	80 e0       	ldi	r24, 0x00	; 0
     91c:	90 e0       	ldi	r25, 0x00	; 0
     91e:	0e 94 c0 16 	call	0x2d80	; 0x2d80 <__floatunsisf>
     922:	25 ee       	ldi	r18, 0xE5	; 229
     924:	30 ed       	ldi	r19, 0xD0	; 208
     926:	4a ea       	ldi	r20, 0xAA	; 170
     928:	50 e4       	ldi	r21, 0x40	; 64
     92a:	0e 94 2c 16 	call	0x2c58	; 0x2c58 <__divsf3>
     92e:	0e 94 94 16 	call	0x2d28	; 0x2d28 <__fixunssfsi>
     932:	10 92 5c 02 	sts	0x025C, r1
     936:	10 92 5d 02 	sts	0x025D, r1
     93a:	10 92 5e 02 	sts	0x025E, r1
     93e:	10 92 5f 02 	sts	0x025F, r1
     942:	00 91 5c 02 	lds	r16, 0x025C
     946:	10 91 5d 02 	lds	r17, 0x025D
     94a:	20 91 5e 02 	lds	r18, 0x025E
     94e:	30 91 5f 02 	lds	r19, 0x025F
     952:	60 17       	cp	r22, r16
     954:	71 07       	cpc	r23, r17
     956:	82 07       	cpc	r24, r18
     958:	93 07       	cpc	r25, r19
     95a:	98 f7       	brcc	.-26     	; 0x942 <linear_distance_mm+0x2e>
     95c:	e3 dd       	rcall	.-1082   	; 0x524 <stop>
     95e:	1f 91       	pop	r17
     960:	0f 91       	pop	r16
     962:	08 95       	ret

00000964 <forward_mm>:
     964:	cf 93       	push	r28
     966:	df 93       	push	r29
     968:	ec 01       	movw	r28, r24
     96a:	d0 dd       	rcall	.-1120   	; 0x50c <forward>
     96c:	ce 01       	movw	r24, r28
     96e:	d2 df       	rcall	.-92     	; 0x914 <linear_distance_mm>
     970:	df 91       	pop	r29
     972:	cf 91       	pop	r28
     974:	08 95       	ret

00000976 <back_mm>:
     976:	cf 93       	push	r28
     978:	df 93       	push	r29
     97a:	ec 01       	movw	r28, r24
     97c:	ca dd       	rcall	.-1132   	; 0x512 <back>
     97e:	ce 01       	movw	r24, r28
     980:	c9 df       	rcall	.-110    	; 0x914 <linear_distance_mm>
     982:	df 91       	pop	r29
     984:	cf 91       	pop	r28
     986:	08 95       	ret

00000988 <left_degrees>:
     988:	cf 93       	push	r28
     98a:	df 93       	push	r29
     98c:	ec 01       	movw	r28, r24
     98e:	c4 dd       	rcall	.-1144   	; 0x518 <left>
     990:	ce 01       	movw	r24, r28
     992:	6e df       	rcall	.-292    	; 0x870 <angle_rotate>
     994:	df 91       	pop	r29
     996:	cf 91       	pop	r28
     998:	08 95       	ret

0000099a <right_degrees>:
     99a:	cf 93       	push	r28
     99c:	df 93       	push	r29
     99e:	ec 01       	movw	r28, r24
     9a0:	be dd       	rcall	.-1156   	; 0x51e <right>
     9a2:	ce 01       	movw	r24, r28
     9a4:	65 df       	rcall	.-310    	; 0x870 <angle_rotate>
     9a6:	df 91       	pop	r29
     9a8:	cf 91       	pop	r28
     9aa:	08 95       	ret

000009ac <init_devices>:
     9ac:	f8 94       	cli
     9ae:	00 df       	rcall	.-512    	; 0x7b0 <port_init_poz>
     9b0:	03 df       	rcall	.-506    	; 0x7b8 <left_position_encoder_interrupt_init>
     9b2:	0b df       	rcall	.-490    	; 0x7ca <right_position_encoder_interrupt_init>
     9b4:	f9 dd       	rcall	.-1038   	; 0x5a8 <port_init>
     9b6:	24 de       	rcall	.-952    	; 0x600 <color_sensor_pin_interrupt_init>
     9b8:	51 de       	rcall	.-862    	; 0x65c <adc_init>
     9ba:	91 dd       	rcall	.-1246   	; 0x4de <motion_pin_config>
     9bc:	75 dd       	rcall	.-1302   	; 0x4a8 <timer5_init>
     9be:	d1 dd       	rcall	.-1118   	; 0x562 <timer1_init>
     9c0:	78 94       	sei
     9c2:	08 95       	ret

000009c4 <node>:
     9c4:	8c e3       	ldi	r24, 0x3C	; 60
     9c6:	90 e0       	ldi	r25, 0x00	; 0
     9c8:	cd cf       	rjmp	.-102    	; 0x964 <forward_mm>
     9ca:	08 95       	ret

000009cc <Delay>:
     9cc:	0f 93       	push	r16
     9ce:	1f 93       	push	r17
     9d0:	cf 93       	push	r28
     9d2:	df 93       	push	r29
     9d4:	8c 01       	movw	r16, r24
     9d6:	18 16       	cp	r1, r24
     9d8:	19 06       	cpc	r1, r25
     9da:	8c f4       	brge	.+34     	; 0x9fe <Delay+0x32>
     9dc:	c0 e0       	ldi	r28, 0x00	; 0
     9de:	d0 e0       	ldi	r29, 0x00	; 0
     9e0:	09 c0       	rjmp	.+18     	; 0x9f4 <Delay+0x28>
     9e2:	86 e6       	ldi	r24, 0x66	; 102
     9e4:	9e e0       	ldi	r25, 0x0E	; 14
     9e6:	01 97       	sbiw	r24, 0x01	; 1
     9e8:	f1 f7       	brne	.-4      	; 0x9e6 <Delay+0x1a>
     9ea:	00 00       	nop
     9ec:	21 96       	adiw	r28, 0x01	; 1
     9ee:	c0 17       	cp	r28, r16
     9f0:	d1 07       	cpc	r29, r17
     9f2:	39 f0       	breq	.+14     	; 0xa02 <Delay+0x36>
     9f4:	82 e0       	ldi	r24, 0x02	; 2
     9f6:	e9 dd       	rcall	.-1070   	; 0x5ca <ADC_Conversion>
     9f8:	89 32       	cpi	r24, 0x29	; 41
     9fa:	98 f3       	brcs	.-26     	; 0x9e2 <Delay+0x16>
     9fc:	02 c0       	rjmp	.+4      	; 0xa02 <Delay+0x36>
     9fe:	c0 e0       	ldi	r28, 0x00	; 0
     a00:	d0 e0       	ldi	r29, 0x00	; 0
     a02:	90 dd       	rcall	.-1248   	; 0x524 <stop>
     a04:	81 e0       	ldi	r24, 0x01	; 1
     a06:	c0 17       	cp	r28, r16
     a08:	d1 07       	cpc	r29, r17
     a0a:	0c f0       	brlt	.+2      	; 0xa0e <Delay+0x42>
     a0c:	80 e0       	ldi	r24, 0x00	; 0
     a0e:	df 91       	pop	r29
     a10:	cf 91       	pop	r28
     a12:	1f 91       	pop	r17
     a14:	0f 91       	pop	r16
     a16:	08 95       	ret

00000a18 <set_color>:
     a18:	83 e0       	ldi	r24, 0x03	; 3
     a1a:	d7 dd       	rcall	.-1106   	; 0x5ca <ADC_Conversion>
     a1c:	80 93 4d 02 	sts	0x024D, r24
     a20:	82 e0       	ldi	r24, 0x02	; 2
     a22:	d3 dd       	rcall	.-1114   	; 0x5ca <ADC_Conversion>
     a24:	80 93 4c 02 	sts	0x024C, r24
     a28:	81 e0       	ldi	r24, 0x01	; 1
     a2a:	cf dd       	rcall	.-1122   	; 0x5ca <ADC_Conversion>
     a2c:	80 93 4b 02 	sts	0x024B, r24
     a30:	08 95       	ret

00000a32 <semiCorrect>:
     a32:	80 91 4c 02 	lds	r24, 0x024C
     a36:	88 32       	cpi	r24, 0x28	; 40
     a38:	58 f5       	brcc	.+86     	; 0xa90 <semiCorrect+0x5e>
     a3a:	80 91 4d 02 	lds	r24, 0x024D
     a3e:	89 32       	cpi	r24, 0x29	; 41
     a40:	98 f0       	brcs	.+38     	; 0xa68 <semiCorrect+0x36>
     a42:	90 91 4b 02 	lds	r25, 0x024B
     a46:	98 32       	cpi	r25, 0x28	; 40
     a48:	78 f4       	brcc	.+30     	; 0xa68 <semiCorrect+0x36>
     a4a:	66 dd       	rcall	.-1332   	; 0x518 <left>
     a4c:	e5 df       	rcall	.-54     	; 0xa18 <set_color>
     a4e:	80 91 4c 02 	lds	r24, 0x024C
     a52:	88 32       	cpi	r24, 0x28	; 40
     a54:	e8 f4       	brcc	.+58     	; 0xa90 <semiCorrect+0x5e>
     a56:	80 91 4d 02 	lds	r24, 0x024D
     a5a:	89 32       	cpi	r24, 0x29	; 41
     a5c:	c8 f0       	brcs	.+50     	; 0xa90 <semiCorrect+0x5e>
     a5e:	80 91 4b 02 	lds	r24, 0x024B
     a62:	88 32       	cpi	r24, 0x28	; 40
     a64:	90 f3       	brcs	.-28     	; 0xa4a <semiCorrect+0x18>
     a66:	08 95       	ret
     a68:	90 91 4b 02 	lds	r25, 0x024B
     a6c:	99 32       	cpi	r25, 0x29	; 41
     a6e:	80 f0       	brcs	.+32     	; 0xa90 <semiCorrect+0x5e>
     a70:	88 32       	cpi	r24, 0x28	; 40
     a72:	70 f4       	brcc	.+28     	; 0xa90 <semiCorrect+0x5e>
     a74:	54 dd       	rcall	.-1368   	; 0x51e <right>
     a76:	d0 df       	rcall	.-96     	; 0xa18 <set_color>
     a78:	80 91 4c 02 	lds	r24, 0x024C
     a7c:	88 32       	cpi	r24, 0x28	; 40
     a7e:	40 f4       	brcc	.+16     	; 0xa90 <semiCorrect+0x5e>
     a80:	80 91 4d 02 	lds	r24, 0x024D
     a84:	88 32       	cpi	r24, 0x28	; 40
     a86:	20 f4       	brcc	.+8      	; 0xa90 <semiCorrect+0x5e>
     a88:	80 91 4b 02 	lds	r24, 0x024B
     a8c:	89 32       	cpi	r24, 0x29	; 41
     a8e:	90 f7       	brcc	.-28     	; 0xa74 <semiCorrect+0x42>
     a90:	08 95       	ret

00000a92 <correct>:
     a92:	0f 93       	push	r16
     a94:	1f 93       	push	r17
     a96:	cf 93       	push	r28
     a98:	df 93       	push	r29
     a9a:	85 e0       	ldi	r24, 0x05	; 5
     a9c:	90 e0       	ldi	r25, 0x00	; 0
     a9e:	90 93 73 02 	sts	0x0273, r25
     aa2:	80 93 72 02 	sts	0x0272, r24
     aa6:	3e dd       	rcall	.-1412   	; 0x524 <stop>
     aa8:	80 91 4a 02 	lds	r24, 0x024A
     aac:	81 30       	cpi	r24, 0x01	; 1
     aae:	09 f0       	breq	.+2      	; 0xab2 <correct+0x20>
     ab0:	34 c0       	rjmp	.+104    	; 0xb1a <correct+0x88>
     ab2:	10 92 4a 02 	sts	0x024A, r1
     ab6:	ce e3       	ldi	r28, 0x3E	; 62
     ab8:	d0 e0       	ldi	r29, 0x00	; 0
     aba:	02 e0       	ldi	r16, 0x02	; 2
     abc:	10 e0       	ldi	r17, 0x00	; 0
     abe:	2f dd       	rcall	.-1442   	; 0x51e <right>
     ac0:	02 30       	cpi	r16, 0x02	; 2
     ac2:	11 05       	cpc	r17, r1
     ac4:	31 f4       	brne	.+12     	; 0xad2 <correct+0x40>
     ac6:	8e e1       	ldi	r24, 0x1E	; 30
     ac8:	90 e0       	ldi	r25, 0x00	; 0
     aca:	80 df       	rcall	.-256    	; 0x9cc <Delay>
     acc:	88 23       	and	r24, r24
     ace:	29 f0       	breq	.+10     	; 0xada <correct+0x48>
     ad0:	58 c0       	rjmp	.+176    	; 0xb82 <correct+0xf0>
     ad2:	ce 01       	movw	r24, r28
     ad4:	7b df       	rcall	.-266    	; 0x9cc <Delay>
     ad6:	81 11       	cpse	r24, r1
     ad8:	54 c0       	rjmp	.+168    	; 0xb82 <correct+0xf0>
     ada:	24 dd       	rcall	.-1464   	; 0x524 <stop>
     adc:	82 e0       	ldi	r24, 0x02	; 2
     ade:	75 dd       	rcall	.-1302   	; 0x5ca <ADC_Conversion>
     ae0:	89 32       	cpi	r24, 0x29	; 41
     ae2:	08 f0       	brcs	.+2      	; 0xae6 <correct+0x54>
     ae4:	4d c0       	rjmp	.+154    	; 0xb80 <correct+0xee>
     ae6:	a5 df       	rcall	.-182    	; 0xa32 <semiCorrect>
     ae8:	17 dd       	rcall	.-1490   	; 0x518 <left>
     aea:	02 30       	cpi	r16, 0x02	; 2
     aec:	11 05       	cpc	r17, r1
     aee:	31 f4       	brne	.+12     	; 0xafc <correct+0x6a>
     af0:	8c e3       	ldi	r24, 0x3C	; 60
     af2:	90 e0       	ldi	r25, 0x00	; 0
     af4:	6b df       	rcall	.-298    	; 0x9cc <Delay>
     af6:	88 23       	and	r24, r24
     af8:	29 f0       	breq	.+10     	; 0xb04 <correct+0x72>
     afa:	43 c0       	rjmp	.+134    	; 0xb82 <correct+0xf0>
     afc:	ce 01       	movw	r24, r28
     afe:	66 df       	rcall	.-308    	; 0x9cc <Delay>
     b00:	81 11       	cpse	r24, r1
     b02:	3f c0       	rjmp	.+126    	; 0xb82 <correct+0xf0>
     b04:	0f dd       	rcall	.-1506   	; 0x524 <stop>
     b06:	82 e0       	ldi	r24, 0x02	; 2
     b08:	60 dd       	rcall	.-1344   	; 0x5ca <ADC_Conversion>
     b0a:	64 96       	adiw	r28, 0x14	; 20
     b0c:	88 32       	cpi	r24, 0x28	; 40
     b0e:	08 f4       	brcc	.+2      	; 0xb12 <correct+0x80>
     b10:	37 c0       	rjmp	.+110    	; 0xb80 <correct+0xee>
     b12:	8f df       	rcall	.-226    	; 0xa32 <semiCorrect>
     b14:	0c 5e       	subi	r16, 0xEC	; 236
     b16:	1f 4f       	sbci	r17, 0xFF	; 255
     b18:	d2 cf       	rjmp	.-92     	; 0xabe <correct+0x2c>
     b1a:	81 e0       	ldi	r24, 0x01	; 1
     b1c:	80 93 4a 02 	sts	0x024A, r24
     b20:	ce e3       	ldi	r28, 0x3E	; 62
     b22:	d0 e0       	ldi	r29, 0x00	; 0
     b24:	02 e0       	ldi	r16, 0x02	; 2
     b26:	10 e0       	ldi	r17, 0x00	; 0
     b28:	f7 dc       	rcall	.-1554   	; 0x518 <left>
     b2a:	02 30       	cpi	r16, 0x02	; 2
     b2c:	11 05       	cpc	r17, r1
     b2e:	31 f4       	brne	.+12     	; 0xb3c <correct+0xaa>
     b30:	8e e1       	ldi	r24, 0x1E	; 30
     b32:	90 e0       	ldi	r25, 0x00	; 0
     b34:	4b df       	rcall	.-362    	; 0x9cc <Delay>
     b36:	88 23       	and	r24, r24
     b38:	29 f0       	breq	.+10     	; 0xb44 <correct+0xb2>
     b3a:	23 c0       	rjmp	.+70     	; 0xb82 <correct+0xf0>
     b3c:	ce 01       	movw	r24, r28
     b3e:	46 df       	rcall	.-372    	; 0x9cc <Delay>
     b40:	81 11       	cpse	r24, r1
     b42:	1f c0       	rjmp	.+62     	; 0xb82 <correct+0xf0>
     b44:	ef dc       	rcall	.-1570   	; 0x524 <stop>
     b46:	82 e0       	ldi	r24, 0x02	; 2
     b48:	40 dd       	rcall	.-1408   	; 0x5ca <ADC_Conversion>
     b4a:	89 32       	cpi	r24, 0x29	; 41
     b4c:	c8 f4       	brcc	.+50     	; 0xb80 <correct+0xee>
     b4e:	71 df       	rcall	.-286    	; 0xa32 <semiCorrect>
     b50:	e6 dc       	rcall	.-1588   	; 0x51e <right>
     b52:	02 30       	cpi	r16, 0x02	; 2
     b54:	11 05       	cpc	r17, r1
     b56:	31 f4       	brne	.+12     	; 0xb64 <correct+0xd2>
     b58:	8c e3       	ldi	r24, 0x3C	; 60
     b5a:	90 e0       	ldi	r25, 0x00	; 0
     b5c:	37 df       	rcall	.-402    	; 0x9cc <Delay>
     b5e:	88 23       	and	r24, r24
     b60:	29 f0       	breq	.+10     	; 0xb6c <correct+0xda>
     b62:	0f c0       	rjmp	.+30     	; 0xb82 <correct+0xf0>
     b64:	ce 01       	movw	r24, r28
     b66:	32 df       	rcall	.-412    	; 0x9cc <Delay>
     b68:	81 11       	cpse	r24, r1
     b6a:	0b c0       	rjmp	.+22     	; 0xb82 <correct+0xf0>
     b6c:	db dc       	rcall	.-1610   	; 0x524 <stop>
     b6e:	82 e0       	ldi	r24, 0x02	; 2
     b70:	2c dd       	rcall	.-1448   	; 0x5ca <ADC_Conversion>
     b72:	64 96       	adiw	r28, 0x14	; 20
     b74:	88 32       	cpi	r24, 0x28	; 40
     b76:	20 f0       	brcs	.+8      	; 0xb80 <correct+0xee>
     b78:	5c df       	rcall	.-328    	; 0xa32 <semiCorrect>
     b7a:	0c 5e       	subi	r16, 0xEC	; 236
     b7c:	1f 4f       	sbci	r17, 0xFF	; 255
     b7e:	d4 cf       	rjmp	.-88     	; 0xb28 <correct+0x96>
     b80:	d1 dc       	rcall	.-1630   	; 0x524 <stop>
     b82:	df 91       	pop	r29
     b84:	cf 91       	pop	r28
     b86:	1f 91       	pop	r17
     b88:	0f 91       	pop	r16
     b8a:	08 95       	ret

00000b8c <noNatak>:
     b8c:	86 e9       	ldi	r24, 0x96	; 150
     b8e:	80 93 28 01 	sts	0x0128, r24
     b92:	80 93 2a 01 	sts	0x012A, r24
     b96:	80 91 4c 02 	lds	r24, 0x024C
     b9a:	88 32       	cpi	r24, 0x28	; 40
     b9c:	70 f5       	brcc	.+92     	; 0xbfa <noNatak+0x6e>
     b9e:	80 91 4d 02 	lds	r24, 0x024D
     ba2:	89 32       	cpi	r24, 0x29	; 41
     ba4:	98 f0       	brcs	.+38     	; 0xbcc <noNatak+0x40>
     ba6:	90 91 4b 02 	lds	r25, 0x024B
     baa:	98 32       	cpi	r25, 0x28	; 40
     bac:	78 f4       	brcc	.+30     	; 0xbcc <noNatak+0x40>
     bae:	b4 dc       	rcall	.-1688   	; 0x518 <left>
     bb0:	33 df       	rcall	.-410    	; 0xa18 <set_color>
     bb2:	80 91 4c 02 	lds	r24, 0x024C
     bb6:	88 32       	cpi	r24, 0x28	; 40
     bb8:	98 f5       	brcc	.+102    	; 0xc20 <noNatak+0x94>
     bba:	80 91 4d 02 	lds	r24, 0x024D
     bbe:	89 32       	cpi	r24, 0x29	; 41
     bc0:	78 f1       	brcs	.+94     	; 0xc20 <noNatak+0x94>
     bc2:	80 91 4b 02 	lds	r24, 0x024B
     bc6:	88 32       	cpi	r24, 0x28	; 40
     bc8:	90 f3       	brcs	.-28     	; 0xbae <noNatak+0x22>
     bca:	2a c0       	rjmp	.+84     	; 0xc20 <noNatak+0x94>
     bcc:	90 91 4b 02 	lds	r25, 0x024B
     bd0:	99 32       	cpi	r25, 0x29	; 41
     bd2:	88 f0       	brcs	.+34     	; 0xbf6 <noNatak+0x6a>
     bd4:	88 32       	cpi	r24, 0x28	; 40
     bd6:	78 f4       	brcc	.+30     	; 0xbf6 <noNatak+0x6a>
     bd8:	a2 dc       	rcall	.-1724   	; 0x51e <right>
     bda:	1e df       	rcall	.-452    	; 0xa18 <set_color>
     bdc:	80 91 4c 02 	lds	r24, 0x024C
     be0:	88 32       	cpi	r24, 0x28	; 40
     be2:	f0 f4       	brcc	.+60     	; 0xc20 <noNatak+0x94>
     be4:	80 91 4d 02 	lds	r24, 0x024D
     be8:	88 32       	cpi	r24, 0x28	; 40
     bea:	d0 f4       	brcc	.+52     	; 0xc20 <noNatak+0x94>
     bec:	80 91 4b 02 	lds	r24, 0x024B
     bf0:	89 32       	cpi	r24, 0x29	; 41
     bf2:	90 f7       	brcc	.-28     	; 0xbd8 <noNatak+0x4c>
     bf4:	15 c0       	rjmp	.+42     	; 0xc20 <noNatak+0x94>
     bf6:	4d df       	rcall	.-358    	; 0xa92 <correct>
     bf8:	13 c0       	rjmp	.+38     	; 0xc20 <noNatak+0x94>
     bfa:	80 91 4d 02 	lds	r24, 0x024D
     bfe:	89 32       	cpi	r24, 0x29	; 41
     c00:	30 f0       	brcs	.+12     	; 0xc0e <noNatak+0x82>
     c02:	90 91 4b 02 	lds	r25, 0x024B
     c06:	98 32       	cpi	r25, 0x28	; 40
     c08:	10 f4       	brcc	.+4      	; 0xc0e <noNatak+0x82>
     c0a:	dc ce       	rjmp	.-584    	; 0x9c4 <node>
     c0c:	08 95       	ret
     c0e:	88 32       	cpi	r24, 0x28	; 40
     c10:	30 f4       	brcc	.+12     	; 0xc1e <noNatak+0x92>
     c12:	80 91 4b 02 	lds	r24, 0x024B
     c16:	89 32       	cpi	r24, 0x29	; 41
     c18:	10 f0       	brcs	.+4      	; 0xc1e <noNatak+0x92>
     c1a:	d4 ce       	rjmp	.-600    	; 0x9c4 <node>
     c1c:	08 95       	ret
     c1e:	39 df       	rcall	.-398    	; 0xa92 <correct>
     c20:	81 cc       	rjmp	.-1790   	; 0x524 <stop>
     c22:	08 95       	ret

00000c24 <forwardJaa>:
     c24:	ff 92       	push	r15
     c26:	0f 93       	push	r16
     c28:	1f 93       	push	r17
     c2a:	cf 93       	push	r28
     c2c:	df 93       	push	r29
     c2e:	08 e2       	ldi	r16, 0x28	; 40
     c30:	11 e0       	ldi	r17, 0x01	; 1
     c32:	0f 2e       	mov	r0, r31
     c34:	f0 ef       	ldi	r31, 0xF0	; 240
     c36:	ff 2e       	mov	r15, r31
     c38:	f0 2d       	mov	r31, r0
     c3a:	ca e2       	ldi	r28, 0x2A	; 42
     c3c:	d1 e0       	ldi	r29, 0x01	; 1
     c3e:	66 dc       	rcall	.-1844   	; 0x50c <forward>
     c40:	eb de       	rcall	.-554    	; 0xa18 <set_color>
     c42:	80 91 4c 02 	lds	r24, 0x024C
     c46:	89 32       	cpi	r24, 0x29	; 41
     c48:	50 f0       	brcs	.+20     	; 0xc5e <forwardJaa+0x3a>
     c4a:	80 91 4d 02 	lds	r24, 0x024D
     c4e:	89 32       	cpi	r24, 0x29	; 41
     c50:	20 f4       	brcc	.+8      	; 0xc5a <forwardJaa+0x36>
     c52:	80 91 4b 02 	lds	r24, 0x024B
     c56:	89 32       	cpi	r24, 0x29	; 41
     c58:	10 f0       	brcs	.+4      	; 0xc5e <forwardJaa+0x3a>
     c5a:	b4 de       	rcall	.-664    	; 0x9c4 <node>
     c5c:	11 c0       	rjmp	.+34     	; 0xc80 <forwardJaa+0x5c>
     c5e:	f8 01       	movw	r30, r16
     c60:	f0 82       	st	Z, r15
     c62:	f8 82       	st	Y, r15
     c64:	80 91 4c 02 	lds	r24, 0x024C
     c68:	89 32       	cpi	r24, 0x29	; 41
     c6a:	40 f0       	brcs	.+16     	; 0xc7c <forwardJaa+0x58>
     c6c:	80 91 4d 02 	lds	r24, 0x024D
     c70:	88 32       	cpi	r24, 0x28	; 40
     c72:	20 f4       	brcc	.+8      	; 0xc7c <forwardJaa+0x58>
     c74:	80 91 4b 02 	lds	r24, 0x024B
     c78:	88 32       	cpi	r24, 0x28	; 40
     c7a:	08 f3       	brcs	.-62     	; 0xc3e <forwardJaa+0x1a>
     c7c:	87 df       	rcall	.-242    	; 0xb8c <noNatak>
     c7e:	d2 df       	rcall	.-92     	; 0xc24 <forwardJaa>
     c80:	df 91       	pop	r29
     c82:	cf 91       	pop	r28
     c84:	1f 91       	pop	r17
     c86:	0f 91       	pop	r16
     c88:	ff 90       	pop	r15
     c8a:	08 95       	ret

00000c8c <elevate>:
     c8c:	61 11       	cpse	r22, r1
     c8e:	02 c0       	rjmp	.+4      	; 0xc94 <elevate+0x8>
     c90:	f2 cc       	rjmp	.-1564   	; 0x676 <servo_1>
     c92:	08 95       	ret
     c94:	61 30       	cpi	r22, 0x01	; 1
     c96:	31 f4       	brne	.+12     	; 0xca4 <elevate+0x18>
     c98:	8d 32       	cpi	r24, 0x2D	; 45
     c9a:	11 f4       	brne	.+4      	; 0xca0 <elevate+0x14>
     c9c:	80 e0       	ldi	r24, 0x00	; 0
     c9e:	01 c0       	rjmp	.+2      	; 0xca2 <elevate+0x16>
     ca0:	8d e2       	ldi	r24, 0x2D	; 45
     ca2:	e9 cc       	rjmp	.-1582   	; 0x676 <servo_1>
     ca4:	08 95       	ret

00000ca6 <open>:
     ca6:	81 11       	cpse	r24, r1
     ca8:	06 c0       	rjmp	.+12     	; 0xcb6 <open+0x10>
     caa:	10 92 8b 00 	sts	0x008B, r1
     cae:	83 e8       	ldi	r24, 0x83	; 131
     cb0:	80 93 8a 00 	sts	0x008A, r24
     cb4:	08 95       	ret
     cb6:	81 30       	cpi	r24, 0x01	; 1
     cb8:	29 f4       	brne	.+10     	; 0xcc4 <open+0x1e>
     cba:	10 92 8d 00 	sts	0x008D, r1
     cbe:	83 e8       	ldi	r24, 0x83	; 131
     cc0:	80 93 8c 00 	sts	0x008C, r24
     cc4:	08 95       	ret

00000cc6 <close>:
     cc6:	81 11       	cpse	r24, r1
     cc8:	06 c0       	rjmp	.+12     	; 0xcd6 <close+0x10>
     cca:	10 92 8b 00 	sts	0x008B, r1
     cce:	83 e2       	ldi	r24, 0x23	; 35
     cd0:	80 93 8a 00 	sts	0x008A, r24
     cd4:	08 95       	ret
     cd6:	81 30       	cpi	r24, 0x01	; 1
     cd8:	29 f4       	brne	.+10     	; 0xce4 <close+0x1e>
     cda:	10 92 8d 00 	sts	0x008D, r1
     cde:	83 e2       	ldi	r24, 0x23	; 35
     ce0:	80 93 8c 00 	sts	0x008C, r24
     ce4:	08 95       	ret

00000ce6 <buzzer>:
     ce6:	69 dc       	rcall	.-1838   	; 0x5ba <buzzer_on>
     ce8:	2f ef       	ldi	r18, 0xFF	; 255
     cea:	8f e7       	ldi	r24, 0x7F	; 127
     cec:	94 e0       	ldi	r25, 0x04	; 4
     cee:	21 50       	subi	r18, 0x01	; 1
     cf0:	80 40       	sbci	r24, 0x00	; 0
     cf2:	90 40       	sbci	r25, 0x00	; 0
     cf4:	e1 f7       	brne	.-8      	; 0xcee <buzzer+0x8>
     cf6:	00 c0       	rjmp	.+0      	; 0xcf8 <buzzer+0x12>
     cf8:	00 00       	nop
     cfa:	63 cc       	rjmp	.-1850   	; 0x5c2 <buzzer_off>
     cfc:	08 95       	ret

00000cfe <lcd>:
     cfe:	cf 93       	push	r28
     d00:	df 93       	push	r29
     d02:	ec 01       	movw	r28, r24
     d04:	81 e0       	ldi	r24, 0x01	; 1
     d06:	55 da       	rcall	.-2902   	; 0x1b2 <lcd_wr_command>
     d08:	61 e0       	ldi	r22, 0x01	; 1
     d0a:	81 e0       	ldi	r24, 0x01	; 1
     d0c:	be da       	rcall	.-2692   	; 0x28a <lcd_cursor>
     d0e:	ce 01       	movw	r24, r28
     d10:	ae da       	rcall	.-2724   	; 0x26e <lcd_string>
     d12:	e9 df       	rcall	.-46     	; 0xce6 <buzzer>
     d14:	2f ef       	ldi	r18, 0xFF	; 255
     d16:	8f ef       	ldi	r24, 0xFF	; 255
     d18:	9c e2       	ldi	r25, 0x2C	; 44
     d1a:	21 50       	subi	r18, 0x01	; 1
     d1c:	80 40       	sbci	r24, 0x00	; 0
     d1e:	90 40       	sbci	r25, 0x00	; 0
     d20:	e1 f7       	brne	.-8      	; 0xd1a <lcd+0x1c>
     d22:	00 c0       	rjmp	.+0      	; 0xd24 <lcd+0x26>
     d24:	00 00       	nop
     d26:	df 91       	pop	r29
     d28:	cf 91       	pop	r28
     d2a:	08 95       	ret

00000d2c <front>:
     d2c:	7b df       	rcall	.-266    	; 0xc24 <forwardJaa>
     d2e:	80 91 76 02 	lds	r24, 0x0276
     d32:	90 91 77 02 	lds	r25, 0x0277
     d36:	01 96       	adiw	r24, 0x01	; 1
     d38:	90 93 77 02 	sts	0x0277, r25
     d3c:	80 93 76 02 	sts	0x0276, r24
     d40:	08 95       	ret

00000d42 <turnRight>:
     d42:	80 91 4e 02 	lds	r24, 0x024E
     d46:	90 91 4f 02 	lds	r25, 0x024F
     d4a:	83 30       	cpi	r24, 0x03	; 3
     d4c:	91 05       	cpc	r25, r1
     d4e:	39 f4       	brne	.+14     	; 0xd5e <turnRight+0x1c>
     d50:	80 91 50 02 	lds	r24, 0x0250
     d54:	90 91 51 02 	lds	r25, 0x0251
     d58:	02 97       	sbiw	r24, 0x02	; 2
     d5a:	98 f4       	brcc	.+38     	; 0xd82 <turnRight+0x40>
     d5c:	09 c0       	rjmp	.+18     	; 0xd70 <turnRight+0x2e>
     d5e:	01 97       	sbiw	r24, 0x01	; 1
     d60:	81 f4       	brne	.+32     	; 0xd82 <turnRight+0x40>
     d62:	80 91 50 02 	lds	r24, 0x0250
     d66:	90 91 51 02 	lds	r25, 0x0251
     d6a:	02 97       	sbiw	r24, 0x02	; 2
     d6c:	02 97       	sbiw	r24, 0x02	; 2
     d6e:	48 f4       	brcc	.+18     	; 0xd82 <turnRight+0x40>
     d70:	86 e9       	ldi	r24, 0x96	; 150
     d72:	80 93 28 01 	sts	0x0128, r24
     d76:	80 93 2a 01 	sts	0x012A, r24
     d7a:	8a e5       	ldi	r24, 0x5A	; 90
     d7c:	90 e0       	ldi	r25, 0x00	; 0
     d7e:	0d de       	rcall	.-998    	; 0x99a <right_degrees>
     d80:	0f c0       	rjmp	.+30     	; 0xda0 <turnRight+0x5e>
     d82:	8e e1       	ldi	r24, 0x1E	; 30
     d84:	90 e0       	ldi	r25, 0x00	; 0
     d86:	09 de       	rcall	.-1006   	; 0x99a <right_degrees>
     d88:	86 e9       	ldi	r24, 0x96	; 150
     d8a:	80 93 28 01 	sts	0x0128, r24
     d8e:	80 93 2a 01 	sts	0x012A, r24
     d92:	01 c0       	rjmp	.+2      	; 0xd96 <turnRight+0x54>
     d94:	c4 db       	rcall	.-2168   	; 0x51e <right>
     d96:	82 e0       	ldi	r24, 0x02	; 2
     d98:	18 dc       	rcall	.-2000   	; 0x5ca <ADC_Conversion>
     d9a:	86 34       	cpi	r24, 0x46	; 70
     d9c:	d8 f3       	brcs	.-10     	; 0xd94 <turnRight+0x52>
     d9e:	c2 db       	rcall	.-2172   	; 0x524 <stop>
     da0:	8e e0       	ldi	r24, 0x0E	; 14
     da2:	92 e0       	ldi	r25, 0x02	; 2
     da4:	ac df       	rcall	.-168    	; 0xcfe <lcd>
     da6:	80 91 4e 02 	lds	r24, 0x024E
     daa:	90 91 4f 02 	lds	r25, 0x024F
     dae:	01 96       	adiw	r24, 0x01	; 1
     db0:	83 70       	andi	r24, 0x03	; 3
     db2:	90 78       	andi	r25, 0x80	; 128
     db4:	99 23       	and	r25, r25
     db6:	24 f4       	brge	.+8      	; 0xdc0 <turnRight+0x7e>
     db8:	01 97       	sbiw	r24, 0x01	; 1
     dba:	8c 6f       	ori	r24, 0xFC	; 252
     dbc:	9f 6f       	ori	r25, 0xFF	; 255
     dbe:	01 96       	adiw	r24, 0x01	; 1
     dc0:	90 93 4f 02 	sts	0x024F, r25
     dc4:	80 93 4e 02 	sts	0x024E, r24
     dc8:	80 91 9b 02 	lds	r24, 0x029B
     dcc:	90 91 9c 02 	lds	r25, 0x029C
     dd0:	86 5a       	subi	r24, 0xA6	; 166
     dd2:	9f 4f       	sbci	r25, 0xFF	; 255
     dd4:	90 93 9c 02 	sts	0x029C, r25
     dd8:	80 93 9b 02 	sts	0x029B, r24
     ddc:	08 95       	ret

00000dde <turnLeft>:
     dde:	80 91 4e 02 	lds	r24, 0x024E
     de2:	90 91 4f 02 	lds	r25, 0x024F
     de6:	81 30       	cpi	r24, 0x01	; 1
     de8:	91 05       	cpc	r25, r1
     dea:	39 f4       	brne	.+14     	; 0xdfa <turnLeft+0x1c>
     dec:	80 91 50 02 	lds	r24, 0x0250
     df0:	90 91 51 02 	lds	r25, 0x0251
     df4:	02 97       	sbiw	r24, 0x02	; 2
     df6:	98 f4       	brcc	.+38     	; 0xe1e <turnLeft+0x40>
     df8:	09 c0       	rjmp	.+18     	; 0xe0c <turnLeft+0x2e>
     dfa:	03 97       	sbiw	r24, 0x03	; 3
     dfc:	81 f4       	brne	.+32     	; 0xe1e <turnLeft+0x40>
     dfe:	80 91 50 02 	lds	r24, 0x0250
     e02:	90 91 51 02 	lds	r25, 0x0251
     e06:	02 97       	sbiw	r24, 0x02	; 2
     e08:	02 97       	sbiw	r24, 0x02	; 2
     e0a:	48 f4       	brcc	.+18     	; 0xe1e <turnLeft+0x40>
     e0c:	86 e9       	ldi	r24, 0x96	; 150
     e0e:	80 93 28 01 	sts	0x0128, r24
     e12:	80 93 2a 01 	sts	0x012A, r24
     e16:	8a e5       	ldi	r24, 0x5A	; 90
     e18:	90 e0       	ldi	r25, 0x00	; 0
     e1a:	b6 dd       	rcall	.-1172   	; 0x988 <left_degrees>
     e1c:	0f c0       	rjmp	.+30     	; 0xe3c <turnLeft+0x5e>
     e1e:	8e e1       	ldi	r24, 0x1E	; 30
     e20:	90 e0       	ldi	r25, 0x00	; 0
     e22:	b2 dd       	rcall	.-1180   	; 0x988 <left_degrees>
     e24:	86 e9       	ldi	r24, 0x96	; 150
     e26:	80 93 28 01 	sts	0x0128, r24
     e2a:	80 93 2a 01 	sts	0x012A, r24
     e2e:	01 c0       	rjmp	.+2      	; 0xe32 <turnLeft+0x54>
     e30:	73 db       	rcall	.-2330   	; 0x518 <left>
     e32:	82 e0       	ldi	r24, 0x02	; 2
     e34:	ca db       	rcall	.-2156   	; 0x5ca <ADC_Conversion>
     e36:	86 34       	cpi	r24, 0x46	; 70
     e38:	d8 f3       	brcs	.-10     	; 0xe30 <turnLeft+0x52>
     e3a:	74 db       	rcall	.-2328   	; 0x524 <stop>
     e3c:	89 e1       	ldi	r24, 0x19	; 25
     e3e:	92 e0       	ldi	r25, 0x02	; 2
     e40:	5e df       	rcall	.-324    	; 0xcfe <lcd>
     e42:	80 91 4e 02 	lds	r24, 0x024E
     e46:	90 91 4f 02 	lds	r25, 0x024F
     e4a:	03 96       	adiw	r24, 0x03	; 3
     e4c:	83 70       	andi	r24, 0x03	; 3
     e4e:	90 78       	andi	r25, 0x80	; 128
     e50:	99 23       	and	r25, r25
     e52:	24 f4       	brge	.+8      	; 0xe5c <turnLeft+0x7e>
     e54:	01 97       	sbiw	r24, 0x01	; 1
     e56:	8c 6f       	ori	r24, 0xFC	; 252
     e58:	9f 6f       	ori	r25, 0xFF	; 255
     e5a:	01 96       	adiw	r24, 0x01	; 1
     e5c:	90 93 4f 02 	sts	0x024F, r25
     e60:	80 93 4e 02 	sts	0x024E, r24
     e64:	80 91 9b 02 	lds	r24, 0x029B
     e68:	90 91 9c 02 	lds	r25, 0x029C
     e6c:	86 5a       	subi	r24, 0xA6	; 166
     e6e:	9f 4f       	sbci	r25, 0xFF	; 255
     e70:	90 93 9c 02 	sts	0x029C, r25
     e74:	80 93 9b 02 	sts	0x029B, r24
     e78:	08 95       	ret

00000e7a <turn>:
     e7a:	80 91 4e 02 	lds	r24, 0x024E
     e7e:	90 91 4f 02 	lds	r25, 0x024F
     e82:	00 97       	sbiw	r24, 0x00	; 0
     e84:	81 f4       	brne	.+32     	; 0xea6 <turn+0x2c>
     e86:	80 91 50 02 	lds	r24, 0x0250
     e8a:	90 91 51 02 	lds	r25, 0x0251
     e8e:	02 97       	sbiw	r24, 0x02	; 2
     e90:	02 97       	sbiw	r24, 0x02	; 2
     e92:	d0 f4       	brcc	.+52     	; 0xec8 <turn+0x4e>
     e94:	86 e9       	ldi	r24, 0x96	; 150
     e96:	80 93 28 01 	sts	0x0128, r24
     e9a:	80 93 2a 01 	sts	0x012A, r24
     e9e:	84 eb       	ldi	r24, 0xB4	; 180
     ea0:	90 e0       	ldi	r25, 0x00	; 0
     ea2:	72 dd       	rcall	.-1308   	; 0x988 <left_degrees>
     ea4:	20 c0       	rjmp	.+64     	; 0xee6 <turn+0x6c>
     ea6:	02 97       	sbiw	r24, 0x02	; 2
     ea8:	79 f4       	brne	.+30     	; 0xec8 <turn+0x4e>
     eaa:	80 91 50 02 	lds	r24, 0x0250
     eae:	90 91 51 02 	lds	r25, 0x0251
     eb2:	02 97       	sbiw	r24, 0x02	; 2
     eb4:	48 f4       	brcc	.+18     	; 0xec8 <turn+0x4e>
     eb6:	86 e9       	ldi	r24, 0x96	; 150
     eb8:	80 93 28 01 	sts	0x0128, r24
     ebc:	80 93 2a 01 	sts	0x012A, r24
     ec0:	84 eb       	ldi	r24, 0xB4	; 180
     ec2:	90 e0       	ldi	r25, 0x00	; 0
     ec4:	61 dd       	rcall	.-1342   	; 0x988 <left_degrees>
     ec6:	0f c0       	rjmp	.+30     	; 0xee6 <turn+0x6c>
     ec8:	86 e9       	ldi	r24, 0x96	; 150
     eca:	80 93 28 01 	sts	0x0128, r24
     ece:	80 93 2a 01 	sts	0x012A, r24
     ed2:	86 e9       	ldi	r24, 0x96	; 150
     ed4:	90 e0       	ldi	r25, 0x00	; 0
     ed6:	58 dd       	rcall	.-1360   	; 0x988 <left_degrees>
     ed8:	01 c0       	rjmp	.+2      	; 0xedc <turn+0x62>
     eda:	1e db       	rcall	.-2500   	; 0x518 <left>
     edc:	82 e0       	ldi	r24, 0x02	; 2
     ede:	75 db       	rcall	.-2326   	; 0x5ca <ADC_Conversion>
     ee0:	86 34       	cpi	r24, 0x46	; 70
     ee2:	d8 f3       	brcs	.-10     	; 0xeda <turn+0x60>
     ee4:	1f db       	rcall	.-2498   	; 0x524 <stop>
     ee6:	8e e1       	ldi	r24, 0x1E	; 30
     ee8:	92 e0       	ldi	r25, 0x02	; 2
     eea:	09 df       	rcall	.-494    	; 0xcfe <lcd>
     eec:	80 91 4e 02 	lds	r24, 0x024E
     ef0:	90 91 4f 02 	lds	r25, 0x024F
     ef4:	02 96       	adiw	r24, 0x02	; 2
     ef6:	83 70       	andi	r24, 0x03	; 3
     ef8:	90 78       	andi	r25, 0x80	; 128
     efa:	99 23       	and	r25, r25
     efc:	24 f4       	brge	.+8      	; 0xf06 <turn+0x8c>
     efe:	01 97       	sbiw	r24, 0x01	; 1
     f00:	8c 6f       	ori	r24, 0xFC	; 252
     f02:	9f 6f       	ori	r25, 0xFF	; 255
     f04:	01 96       	adiw	r24, 0x01	; 1
     f06:	90 93 4f 02 	sts	0x024F, r25
     f0a:	80 93 4e 02 	sts	0x024E, r24
     f0e:	80 91 9b 02 	lds	r24, 0x029B
     f12:	90 91 9c 02 	lds	r25, 0x029C
     f16:	8c 54       	subi	r24, 0x4C	; 76
     f18:	9f 4f       	sbci	r25, 0xFF	; 255
     f1a:	90 93 9c 02 	sts	0x029C, r25
     f1e:	80 93 9b 02 	sts	0x029B, r24
     f22:	08 95       	ret

00000f24 <traverseToSort>:
     f24:	cf 93       	push	r28
     f26:	df 93       	push	r29
     f28:	ec 01       	movw	r28, r24
     f2a:	80 91 54 02 	lds	r24, 0x0254
     f2e:	90 91 55 02 	lds	r25, 0x0255
     f32:	01 97       	sbiw	r24, 0x01	; 1
     f34:	21 f4       	brne	.+8      	; 0xf3e <traverseToSort+0x1a>
     f36:	10 92 55 02 	sts	0x0255, r1
     f3a:	10 92 54 02 	sts	0x0254, r1
     f3e:	ce 01       	movw	r24, r28
     f40:	04 97       	sbiw	r24, 0x04	; 4
     f42:	02 97       	sbiw	r24, 0x02	; 2
     f44:	88 f5       	brcc	.+98     	; 0xfa8 <traverseToSort+0x84>
     f46:	c4 30       	cpi	r28, 0x04	; 4
     f48:	d1 05       	cpc	r29, r1
     f4a:	39 f4       	brne	.+14     	; 0xf5a <traverseToSort+0x36>
     f4c:	80 91 4e 02 	lds	r24, 0x024E
     f50:	90 91 4f 02 	lds	r25, 0x024F
     f54:	89 2b       	or	r24, r25
     f56:	51 f0       	breq	.+20     	; 0xf6c <traverseToSort+0x48>
     f58:	0b c0       	rjmp	.+22     	; 0xf70 <traverseToSort+0x4c>
     f5a:	c5 30       	cpi	r28, 0x05	; 5
     f5c:	d1 05       	cpc	r29, r1
     f5e:	41 f4       	brne	.+16     	; 0xf70 <traverseToSort+0x4c>
     f60:	80 91 4e 02 	lds	r24, 0x024E
     f64:	90 91 4f 02 	lds	r25, 0x024F
     f68:	02 97       	sbiw	r24, 0x02	; 2
     f6a:	11 f4       	brne	.+4      	; 0xf70 <traverseToSort+0x4c>
     f6c:	ea de       	rcall	.-556    	; 0xd42 <turnRight>
     f6e:	01 c0       	rjmp	.+2      	; 0xf72 <traverseToSort+0x4e>
     f70:	36 df       	rcall	.-404    	; 0xdde <turnLeft>
     f72:	dc de       	rcall	.-584    	; 0xd2c <front>
     f74:	db de       	rcall	.-586    	; 0xd2c <front>
     f76:	24 97       	sbiw	r28, 0x04	; 4
     f78:	39 f4       	brne	.+14     	; 0xf88 <traverseToSort+0x64>
     f7a:	85 e0       	ldi	r24, 0x05	; 5
     f7c:	90 e0       	ldi	r25, 0x00	; 0
     f7e:	90 93 51 02 	sts	0x0251, r25
     f82:	80 93 50 02 	sts	0x0250, r24
     f86:	06 c0       	rjmp	.+12     	; 0xf94 <traverseToSort+0x70>
     f88:	84 e0       	ldi	r24, 0x04	; 4
     f8a:	90 e0       	ldi	r25, 0x00	; 0
     f8c:	90 93 51 02 	sts	0x0251, r25
     f90:	80 93 50 02 	sts	0x0250, r24
     f94:	80 91 76 02 	lds	r24, 0x0276
     f98:	90 91 77 02 	lds	r25, 0x0277
     f9c:	02 96       	adiw	r24, 0x02	; 2
     f9e:	90 93 77 02 	sts	0x0277, r25
     fa2:	80 93 76 02 	sts	0x0276, r24
     fa6:	45 c0       	rjmp	.+138    	; 0x1032 <traverseToSort+0x10e>
     fa8:	80 91 4e 02 	lds	r24, 0x024E
     fac:	90 91 4f 02 	lds	r25, 0x024F
     fb0:	81 30       	cpi	r24, 0x01	; 1
     fb2:	91 05       	cpc	r25, r1
     fb4:	39 f4       	brne	.+14     	; 0xfc4 <traverseToSort+0xa0>
     fb6:	80 91 50 02 	lds	r24, 0x0250
     fba:	90 91 51 02 	lds	r25, 0x0251
     fbe:	02 97       	sbiw	r24, 0x02	; 2
     fc0:	78 f4       	brcc	.+30     	; 0xfe0 <traverseToSort+0xbc>
     fc2:	09 c0       	rjmp	.+18     	; 0xfd6 <traverseToSort+0xb2>
     fc4:	03 97       	sbiw	r24, 0x03	; 3
     fc6:	99 f4       	brne	.+38     	; 0xfee <traverseToSort+0xca>
     fc8:	80 91 50 02 	lds	r24, 0x0250
     fcc:	90 91 51 02 	lds	r25, 0x0251
     fd0:	82 30       	cpi	r24, 0x02	; 2
     fd2:	91 05       	cpc	r25, r1
     fd4:	11 f4       	brne	.+4      	; 0xfda <traverseToSort+0xb6>
     fd6:	b5 de       	rcall	.-662    	; 0xd42 <turnRight>
     fd8:	0a c0       	rjmp	.+20     	; 0xfee <traverseToSort+0xca>
     fda:	02 97       	sbiw	r24, 0x02	; 2
     fdc:	40 f4       	brcc	.+16     	; 0xfee <traverseToSort+0xca>
     fde:	06 c0       	rjmp	.+12     	; 0xfec <traverseToSort+0xc8>
     fe0:	80 91 50 02 	lds	r24, 0x0250
     fe4:	90 91 51 02 	lds	r25, 0x0251
     fe8:	02 97       	sbiw	r24, 0x02	; 2
     fea:	09 f4       	brne	.+2      	; 0xfee <traverseToSort+0xca>
     fec:	f8 de       	rcall	.-528    	; 0xdde <turnLeft>
     fee:	22 97       	sbiw	r28, 0x02	; 2
     ff0:	3c f4       	brge	.+14     	; 0x1000 <traverseToSort+0xdc>
     ff2:	80 91 4e 02 	lds	r24, 0x024E
     ff6:	90 91 4f 02 	lds	r25, 0x024F
     ffa:	89 2b       	or	r24, r25
     ffc:	39 f0       	breq	.+14     	; 0x100c <traverseToSort+0xe8>
     ffe:	07 c0       	rjmp	.+14     	; 0x100e <traverseToSort+0xea>
    1000:	80 91 4e 02 	lds	r24, 0x024E
    1004:	90 91 4f 02 	lds	r25, 0x024F
    1008:	02 97       	sbiw	r24, 0x02	; 2
    100a:	09 f4       	brne	.+2      	; 0x100e <traverseToSort+0xea>
    100c:	36 df       	rcall	.-404    	; 0xe7a <turn>
    100e:	8e de       	rcall	.-740    	; 0xd2c <front>
    1010:	80 91 87 02 	lds	r24, 0x0287
    1014:	90 91 88 02 	lds	r25, 0x0288
    1018:	81 70       	andi	r24, 0x01	; 1
    101a:	90 78       	andi	r25, 0x80	; 128
    101c:	99 23       	and	r25, r25
    101e:	24 f4       	brge	.+8      	; 0x1028 <traverseToSort+0x104>
    1020:	01 97       	sbiw	r24, 0x01	; 1
    1022:	8e 6f       	ori	r24, 0xFE	; 254
    1024:	9f 6f       	ori	r25, 0xFF	; 255
    1026:	01 96       	adiw	r24, 0x01	; 1
    1028:	04 96       	adiw	r24, 0x04	; 4
    102a:	90 93 51 02 	sts	0x0251, r25
    102e:	80 93 50 02 	sts	0x0250, r24
    1032:	df 91       	pop	r29
    1034:	cf 91       	pop	r28
    1036:	08 95       	ret

00001038 <scan>:
    1038:	0f 93       	push	r16
    103a:	1f 93       	push	r17
    103c:	41 db       	rcall	.-2430   	; 0x6c0 <red_read>
    103e:	8f db       	rcall	.-2274   	; 0x75e <blue_read>
    1040:	6b db       	rcall	.-2346   	; 0x718 <green_read>
    1042:	2f ef       	ldi	r18, 0xFF	; 255
    1044:	8f e7       	ldi	r24, 0x7F	; 127
    1046:	94 e0       	ldi	r25, 0x04	; 4
    1048:	21 50       	subi	r18, 0x01	; 1
    104a:	80 40       	sbci	r24, 0x00	; 0
    104c:	90 40       	sbci	r25, 0x00	; 0
    104e:	e1 f7       	brne	.-8      	; 0x1048 <scan+0x10>
    1050:	00 c0       	rjmp	.+0      	; 0x1052 <scan+0x1a>
    1052:	00 00       	nop
    1054:	8b e0       	ldi	r24, 0x0B	; 11
    1056:	b9 da       	rcall	.-2702   	; 0x5ca <ADC_Conversion>
    1058:	88 33       	cpi	r24, 0x38	; 56
    105a:	08 f4       	brcc	.+2      	; 0x105e <scan+0x26>
    105c:	7b c0       	rjmp	.+246    	; 0x1154 <scan+0x11c>
    105e:	8b e0       	ldi	r24, 0x0B	; 11
    1060:	b4 da       	rcall	.-2712   	; 0x5ca <ADC_Conversion>
    1062:	84 36       	cpi	r24, 0x64	; 100
    1064:	08 f0       	brcs	.+2      	; 0x1068 <scan+0x30>
    1066:	79 c0       	rjmp	.+242    	; 0x115a <scan+0x122>
    1068:	80 91 6c 02 	lds	r24, 0x026C
    106c:	90 91 6d 02 	lds	r25, 0x026D
    1070:	aa 27       	eor	r26, r26
    1072:	97 fd       	sbrc	r25, 7
    1074:	a0 95       	com	r26
    1076:	ba 2f       	mov	r27, r26
    1078:	40 91 7e 02 	lds	r20, 0x027E
    107c:	50 91 7f 02 	lds	r21, 0x027F
    1080:	60 91 80 02 	lds	r22, 0x0280
    1084:	70 91 81 02 	lds	r23, 0x0281
    1088:	48 17       	cp	r20, r24
    108a:	59 07       	cpc	r21, r25
    108c:	6a 07       	cpc	r22, r26
    108e:	7b 07       	cpc	r23, r27
    1090:	d8 f4       	brcc	.+54     	; 0x10c8 <scan+0x90>
    1092:	40 91 7a 02 	lds	r20, 0x027A
    1096:	50 91 7b 02 	lds	r21, 0x027B
    109a:	60 91 7c 02 	lds	r22, 0x027C
    109e:	70 91 7d 02 	lds	r23, 0x027D
    10a2:	48 17       	cp	r20, r24
    10a4:	59 07       	cpc	r21, r25
    10a6:	6a 07       	cpc	r22, r26
    10a8:	7b 07       	cpc	r23, r27
    10aa:	70 f4       	brcc	.+28     	; 0x10c8 <scan+0x90>
    10ac:	40 91 6e 02 	lds	r20, 0x026E
    10b0:	50 91 6f 02 	lds	r21, 0x026F
    10b4:	60 91 70 02 	lds	r22, 0x0270
    10b8:	70 91 71 02 	lds	r23, 0x0271
    10bc:	48 17       	cp	r20, r24
    10be:	59 07       	cpc	r21, r25
    10c0:	6a 07       	cpc	r22, r26
    10c2:	7b 07       	cpc	r23, r27
    10c4:	08 f4       	brcc	.+2      	; 0x10c8 <scan+0x90>
    10c6:	4c c0       	rjmp	.+152    	; 0x1160 <scan+0x128>
    10c8:	40 91 7e 02 	lds	r20, 0x027E
    10cc:	50 91 7f 02 	lds	r21, 0x027F
    10d0:	60 91 80 02 	lds	r22, 0x0280
    10d4:	70 91 81 02 	lds	r23, 0x0281
    10d8:	80 91 6e 02 	lds	r24, 0x026E
    10dc:	90 91 6f 02 	lds	r25, 0x026F
    10e0:	a0 91 70 02 	lds	r26, 0x0270
    10e4:	b0 91 71 02 	lds	r27, 0x0271
    10e8:	84 17       	cp	r24, r20
    10ea:	95 07       	cpc	r25, r21
    10ec:	a6 07       	cpc	r26, r22
    10ee:	b7 07       	cpc	r27, r23
    10f0:	c8 f4       	brcc	.+50     	; 0x1124 <scan+0xec>
    10f2:	00 91 7e 02 	lds	r16, 0x027E
    10f6:	10 91 7f 02 	lds	r17, 0x027F
    10fa:	20 91 80 02 	lds	r18, 0x0280
    10fe:	30 91 81 02 	lds	r19, 0x0281
    1102:	40 91 7a 02 	lds	r20, 0x027A
    1106:	50 91 7b 02 	lds	r21, 0x027B
    110a:	60 91 7c 02 	lds	r22, 0x027C
    110e:	70 91 7d 02 	lds	r23, 0x027D
    1112:	81 e0       	ldi	r24, 0x01	; 1
    1114:	90 e0       	ldi	r25, 0x00	; 0
    1116:	40 17       	cp	r20, r16
    1118:	51 07       	cpc	r21, r17
    111a:	62 07       	cpc	r22, r18
    111c:	73 07       	cpc	r23, r19
    111e:	28 f5       	brcc	.+74     	; 0x116a <scan+0x132>
    1120:	80 e0       	ldi	r24, 0x00	; 0
    1122:	23 c0       	rjmp	.+70     	; 0x116a <scan+0x132>
    1124:	40 91 6e 02 	lds	r20, 0x026E
    1128:	50 91 6f 02 	lds	r21, 0x026F
    112c:	60 91 70 02 	lds	r22, 0x0270
    1130:	70 91 71 02 	lds	r23, 0x0271
    1134:	80 91 7a 02 	lds	r24, 0x027A
    1138:	90 91 7b 02 	lds	r25, 0x027B
    113c:	a0 91 7c 02 	lds	r26, 0x027C
    1140:	b0 91 7d 02 	lds	r27, 0x027D
    1144:	84 17       	cp	r24, r20
    1146:	95 07       	cpc	r25, r21
    1148:	a6 07       	cpc	r26, r22
    114a:	b7 07       	cpc	r27, r23
    114c:	60 f4       	brcc	.+24     	; 0x1166 <scan+0x12e>
    114e:	82 e0       	ldi	r24, 0x02	; 2
    1150:	90 e0       	ldi	r25, 0x00	; 0
    1152:	0b c0       	rjmp	.+22     	; 0x116a <scan+0x132>
    1154:	8f ef       	ldi	r24, 0xFF	; 255
    1156:	9f ef       	ldi	r25, 0xFF	; 255
    1158:	08 c0       	rjmp	.+16     	; 0x116a <scan+0x132>
    115a:	8f ef       	ldi	r24, 0xFF	; 255
    115c:	9f ef       	ldi	r25, 0xFF	; 255
    115e:	05 c0       	rjmp	.+10     	; 0x116a <scan+0x132>
    1160:	83 e0       	ldi	r24, 0x03	; 3
    1162:	90 e0       	ldi	r25, 0x00	; 0
    1164:	02 c0       	rjmp	.+4      	; 0x116a <scan+0x132>
    1166:	81 e0       	ldi	r24, 0x01	; 1
    1168:	90 e0       	ldi	r25, 0x00	; 0
    116a:	1f 91       	pop	r17
    116c:	0f 91       	pop	r16
    116e:	08 95       	ret

00001170 <setIndicatorAndColor>:
    1170:	cf 93       	push	r28
    1172:	df 93       	push	r29
    1174:	cd e9       	ldi	r28, 0x9D	; 157
    1176:	d2 e0       	ldi	r29, 0x02	; 2
    1178:	eb e8       	ldi	r30, 0x8B	; 139
    117a:	f2 e0       	ldi	r31, 0x02	; 2
    117c:	a4 e6       	ldi	r26, 0x64	; 100
    117e:	b2 e0       	ldi	r27, 0x02	; 2
    1180:	80 e0       	ldi	r24, 0x00	; 0
    1182:	90 e0       	ldi	r25, 0x00	; 0
    1184:	2e ef       	ldi	r18, 0xFE	; 254
    1186:	3f ef       	ldi	r19, 0xFF	; 255
    1188:	89 93       	st	Y+, r24
    118a:	99 93       	st	Y+, r25
    118c:	33 83       	std	Z+3, r19	; 0x03
    118e:	22 83       	std	Z+2, r18	; 0x02
    1190:	31 83       	std	Z+1, r19	; 0x01
    1192:	20 83       	st	Z, r18
    1194:	1d 92       	st	X+, r1
    1196:	1d 92       	st	X+, r1
    1198:	01 96       	adiw	r24, 0x01	; 1
    119a:	34 96       	adiw	r30, 0x04	; 4
    119c:	84 30       	cpi	r24, 0x04	; 4
    119e:	91 05       	cpc	r25, r1
    11a0:	99 f7       	brne	.-26     	; 0x1188 <setIndicatorAndColor+0x18>
    11a2:	e0 91 9d 02 	lds	r30, 0x029D
    11a6:	f0 91 9e 02 	lds	r31, 0x029E
    11aa:	ee 0f       	add	r30, r30
    11ac:	ff 1f       	adc	r31, r31
    11ae:	eb 55       	subi	r30, 0x5B	; 91
    11b0:	fd 4f       	sbci	r31, 0xFD	; 253
    11b2:	11 82       	std	Z+1, r1	; 0x01
    11b4:	10 82       	st	Z, r1
    11b6:	e0 91 9f 02 	lds	r30, 0x029F
    11ba:	f0 91 a0 02 	lds	r31, 0x02A0
    11be:	ee 0f       	add	r30, r30
    11c0:	ff 1f       	adc	r31, r31
    11c2:	eb 55       	subi	r30, 0x5B	; 91
    11c4:	fd 4f       	sbci	r31, 0xFD	; 253
    11c6:	81 e0       	ldi	r24, 0x01	; 1
    11c8:	90 e0       	ldi	r25, 0x00	; 0
    11ca:	91 83       	std	Z+1, r25	; 0x01
    11cc:	80 83       	st	Z, r24
    11ce:	e0 91 a1 02 	lds	r30, 0x02A1
    11d2:	f0 91 a2 02 	lds	r31, 0x02A2
    11d6:	ee 0f       	add	r30, r30
    11d8:	ff 1f       	adc	r31, r31
    11da:	eb 55       	subi	r30, 0x5B	; 91
    11dc:	fd 4f       	sbci	r31, 0xFD	; 253
    11de:	82 e0       	ldi	r24, 0x02	; 2
    11e0:	90 e0       	ldi	r25, 0x00	; 0
    11e2:	91 83       	std	Z+1, r25	; 0x01
    11e4:	80 83       	st	Z, r24
    11e6:	e0 91 a3 02 	lds	r30, 0x02A3
    11ea:	f0 91 a4 02 	lds	r31, 0x02A4
    11ee:	ee 0f       	add	r30, r30
    11f0:	ff 1f       	adc	r31, r31
    11f2:	eb 55       	subi	r30, 0x5B	; 91
    11f4:	fd 4f       	sbci	r31, 0xFD	; 253
    11f6:	83 e0       	ldi	r24, 0x03	; 3
    11f8:	90 e0       	ldi	r25, 0x00	; 0
    11fa:	91 83       	std	Z+1, r25	; 0x01
    11fc:	80 83       	st	Z, r24
    11fe:	8f ef       	ldi	r24, 0xFF	; 255
    1200:	9f ef       	ldi	r25, 0xFF	; 255
    1202:	90 93 86 02 	sts	0x0286, r25
    1206:	80 93 85 02 	sts	0x0285, r24
    120a:	90 93 84 02 	sts	0x0284, r25
    120e:	80 93 83 02 	sts	0x0283, r24
    1212:	90 93 b4 02 	sts	0x02B4, r25
    1216:	80 93 b3 02 	sts	0x02B3, r24
    121a:	90 93 b2 02 	sts	0x02B2, r25
    121e:	80 93 b1 02 	sts	0x02B1, r24
    1222:	df 91       	pop	r29
    1224:	cf 91       	pop	r28
    1226:	08 95       	ret

00001228 <terminalCheck1>:
void terminalCheck1()
{
    1228:	cf 93       	push	r28
    122a:	df 93       	push	r29
	forward_mm(30);
    122c:	8e e1       	ldi	r24, 0x1E	; 30
    122e:	90 e0       	ldi	r25, 0x00	; 0
    1230:	99 db       	rcall	.-2254   	; 0x964 <forward_mm>
	flag = 1;
    1232:	81 e0       	ldi	r24, 0x01	; 1
    1234:	90 e0       	ldi	r25, 0x00	; 0
    1236:	90 93 55 02 	sts	0x0255, r25
    123a:	80 93 54 02 	sts	0x0254, r24
	if (ct != ot)
    123e:	80 91 50 02 	lds	r24, 0x0250
    1242:	90 91 51 02 	lds	r25, 0x0251
    1246:	20 91 87 02 	lds	r18, 0x0287
    124a:	30 91 88 02 	lds	r19, 0x0288
    124e:	28 17       	cp	r18, r24
    1250:	39 07       	cpc	r19, r25
    1252:	89 f1       	breq	.+98     	; 0x12b6 <terminalCheck1+0x8e>
	{
		if (dir == 1 || dir == 3)
    1254:	20 91 4e 02 	lds	r18, 0x024E
    1258:	30 91 4f 02 	lds	r19, 0x024F
    125c:	2d 7f       	andi	r18, 0xFD	; 253
    125e:	21 30       	cpi	r18, 0x01	; 1
    1260:	31 05       	cpc	r19, r1
    1262:	41 f4       	brne	.+16     	; 0x1274 <terminalCheck1+0x4c>
		{
			if (ot == 3 || ot == 0)
    1264:	83 30       	cpi	r24, 0x03	; 3
    1266:	91 05       	cpc	r25, r1
    1268:	11 f0       	breq	.+4      	; 0x126e <terminalCheck1+0x46>
    126a:	89 2b       	or	r24, r25
    126c:	11 f4       	brne	.+4      	; 0x1272 <terminalCheck1+0x4a>
				turnRight();
    126e:	69 dd       	rcall	.-1326   	; 0xd42 <turnRight>
    1270:	01 c0       	rjmp	.+2      	; 0x1274 <terminalCheck1+0x4c>
			else turnLeft();
    1272:	b5 dd       	rcall	.-1174   	; 0xdde <turnLeft>
		}
		if (((ct == 0 || ct == 1) && dir == 2) || ((ct == 2 || ct == 3) && dir == 0))
    1274:	80 91 87 02 	lds	r24, 0x0287
    1278:	90 91 88 02 	lds	r25, 0x0288
    127c:	82 30       	cpi	r24, 0x02	; 2
    127e:	91 05       	cpc	r25, r1
    1280:	38 f4       	brcc	.+14     	; 0x1290 <terminalCheck1+0x68>
    1282:	20 91 4e 02 	lds	r18, 0x024E
    1286:	30 91 4f 02 	lds	r19, 0x024F
    128a:	22 30       	cpi	r18, 0x02	; 2
    128c:	31 05       	cpc	r19, r1
    128e:	49 f0       	breq	.+18     	; 0x12a2 <terminalCheck1+0x7a>
    1290:	02 97       	sbiw	r24, 0x02	; 2
    1292:	02 97       	sbiw	r24, 0x02	; 2
    1294:	38 f4       	brcc	.+14     	; 0x12a4 <terminalCheck1+0x7c>
    1296:	80 91 4e 02 	lds	r24, 0x024E
    129a:	90 91 4f 02 	lds	r25, 0x024F
    129e:	89 2b       	or	r24, r25
    12a0:	09 f4       	brne	.+2      	; 0x12a4 <terminalCheck1+0x7c>
			turn();
    12a2:	eb dd       	rcall	.-1066   	; 0xe7a <turn>
		front();
    12a4:	43 dd       	rcall	.-1402   	; 0xd2c <front>
		ot = ct;
    12a6:	80 91 87 02 	lds	r24, 0x0287
    12aa:	90 91 88 02 	lds	r25, 0x0288
    12ae:	90 93 51 02 	sts	0x0251, r25
    12b2:	80 93 50 02 	sts	0x0250, r24
	}
	if (((ct == 0 || ct == 1) && dir == 0) || ((ct == 2 || ct == 3) && dir == 2))
    12b6:	80 91 87 02 	lds	r24, 0x0287
    12ba:	90 91 88 02 	lds	r25, 0x0288
    12be:	82 30       	cpi	r24, 0x02	; 2
    12c0:	91 05       	cpc	r25, r1
    12c2:	30 f4       	brcc	.+12     	; 0x12d0 <terminalCheck1+0xa8>
    12c4:	20 91 4e 02 	lds	r18, 0x024E
    12c8:	30 91 4f 02 	lds	r19, 0x024F
    12cc:	23 2b       	or	r18, r19
    12ce:	49 f0       	breq	.+18     	; 0x12e2 <terminalCheck1+0xba>
    12d0:	02 97       	sbiw	r24, 0x02	; 2
    12d2:	02 97       	sbiw	r24, 0x02	; 2
    12d4:	40 f4       	brcc	.+16     	; 0x12e6 <terminalCheck1+0xbe>
    12d6:	80 91 4e 02 	lds	r24, 0x024E
    12da:	90 91 4f 02 	lds	r25, 0x024F
    12de:	02 97       	sbiw	r24, 0x02	; 2
    12e0:	11 f4       	brne	.+4      	; 0x12e6 <terminalCheck1+0xbe>
		turnRight();
    12e2:	2f dd       	rcall	.-1442   	; 0xd42 <turnRight>
    12e4:	01 c0       	rjmp	.+2      	; 0x12e8 <terminalCheck1+0xc0>
	else turnLeft();
    12e6:	7b dd       	rcall	.-1290   	; 0xdde <turnLeft>
	term[ct][0] = scan();
    12e8:	c0 91 87 02 	lds	r28, 0x0287
    12ec:	d0 91 88 02 	lds	r29, 0x0288
    12f0:	a3 de       	rcall	.-698    	; 0x1038 <scan>
    12f2:	cc 0f       	add	r28, r28
    12f4:	dd 1f       	adc	r29, r29
    12f6:	cc 0f       	add	r28, r28
    12f8:	dd 1f       	adc	r29, r29
    12fa:	c5 57       	subi	r28, 0x75	; 117
    12fc:	dd 4f       	sbci	r29, 0xFD	; 253
    12fe:	99 83       	std	Y+1, r25	; 0x01
    1300:	88 83       	st	Y, r24
	if(term[ct][0]==-1)
    1302:	e0 91 87 02 	lds	r30, 0x0287
    1306:	f0 91 88 02 	lds	r31, 0x0288
    130a:	ee 0f       	add	r30, r30
    130c:	ff 1f       	adc	r31, r31
    130e:	ee 0f       	add	r30, r30
    1310:	ff 1f       	adc	r31, r31
    1312:	e5 57       	subi	r30, 0x75	; 117
    1314:	fd 4f       	sbci	r31, 0xFD	; 253
    1316:	40 81       	ld	r20, Z
    1318:	51 81       	ldd	r21, Z+1	; 0x01
    131a:	4f 3f       	cpi	r20, 0xFF	; 255
    131c:	2f ef       	ldi	r18, 0xFF	; 255
    131e:	52 07       	cpc	r21, r18
    1320:	49 f4       	brne	.+18     	; 0x1334 <terminalCheck1+0x10c>
		lcd_print(2,11,9, 1);
    1322:	21 e0       	ldi	r18, 0x01	; 1
    1324:	30 e0       	ldi	r19, 0x00	; 0
    1326:	49 e0       	ldi	r20, 0x09	; 9
    1328:	50 e0       	ldi	r21, 0x00	; 0
    132a:	6b e0       	ldi	r22, 0x0B	; 11
    132c:	82 e0       	ldi	r24, 0x02	; 2
    132e:	0e 94 60 01 	call	0x2c0	; 0x2c0 <lcd_print>
    1332:	06 c0       	rjmp	.+12     	; 0x1340 <terminalCheck1+0x118>
	else
		lcd_print(2,11, term[ct][0], 1);
    1334:	21 e0       	ldi	r18, 0x01	; 1
    1336:	30 e0       	ldi	r19, 0x00	; 0
    1338:	6b e0       	ldi	r22, 0x0B	; 11
    133a:	82 e0       	ldi	r24, 0x02	; 2
    133c:	0e 94 60 01 	call	0x2c0	; 0x2c0 <lcd_print>
	#else
		//round up by default
		__ticks_dc = (uint32_t)(ceil(fabs(__tmp)));
	#endif

	__builtin_avr_delay_cycles(__ticks_dc);
    1340:	4f ef       	ldi	r20, 0xFF	; 255
    1342:	8f ef       	ldi	r24, 0xFF	; 255
    1344:	9c e2       	ldi	r25, 0x2C	; 44
    1346:	41 50       	subi	r20, 0x01	; 1
    1348:	80 40       	sbci	r24, 0x00	; 0
    134a:	90 40       	sbci	r25, 0x00	; 0
    134c:	e1 f7       	brne	.-8      	; 0x1346 <terminalCheck1+0x11e>
    134e:	00 c0       	rjmp	.+0      	; 0x1350 <terminalCheck1+0x128>
    1350:	00 00       	nop
	//printf("Enter term[%d][%d]\n", ct, 0);
	//scanf("%d", &term[ct][0]);



	lcd((char*)term[ct][0]);
    1352:	e0 91 87 02 	lds	r30, 0x0287
    1356:	f0 91 88 02 	lds	r31, 0x0288
    135a:	ee 0f       	add	r30, r30
    135c:	ff 1f       	adc	r31, r31
    135e:	ee 0f       	add	r30, r30
    1360:	ff 1f       	adc	r31, r31
    1362:	e5 57       	subi	r30, 0x75	; 117
    1364:	fd 4f       	sbci	r31, 0xFD	; 253
    1366:	80 81       	ld	r24, Z
    1368:	91 81       	ldd	r25, Z+1	; 0x01
    136a:	c9 dc       	rcall	.-1646   	; 0xcfe <lcd>
	if (term[ct][0] == -1 || term[ct][0] == color[ct])
    136c:	20 91 87 02 	lds	r18, 0x0287
    1370:	30 91 88 02 	lds	r19, 0x0288
    1374:	f9 01       	movw	r30, r18
    1376:	ee 0f       	add	r30, r30
    1378:	ff 1f       	adc	r31, r31
    137a:	ee 0f       	add	r30, r30
    137c:	ff 1f       	adc	r31, r31
    137e:	e5 57       	subi	r30, 0x75	; 117
    1380:	fd 4f       	sbci	r31, 0xFD	; 253
    1382:	80 81       	ld	r24, Z
    1384:	91 81       	ldd	r25, Z+1	; 0x01
    1386:	8f 3f       	cpi	r24, 0xFF	; 255
    1388:	4f ef       	ldi	r20, 0xFF	; 255
    138a:	94 07       	cpc	r25, r20
    138c:	51 f0       	breq	.+20     	; 0x13a2 <terminalCheck1+0x17a>
    138e:	f9 01       	movw	r30, r18
    1390:	ee 0f       	add	r30, r30
    1392:	ff 1f       	adc	r31, r31
    1394:	e3 56       	subi	r30, 0x63	; 99
    1396:	fd 4f       	sbci	r31, 0xFD	; 253
    1398:	20 81       	ld	r18, Z
    139a:	31 81       	ldd	r19, Z+1	; 0x01
    139c:	82 17       	cp	r24, r18
    139e:	93 07       	cpc	r25, r19
    13a0:	49 f4       	brne	.+18     	; 0x13b4 <terminalCheck1+0x18c>
		total--;
    13a2:	80 91 00 02 	lds	r24, 0x0200
    13a6:	90 91 01 02 	lds	r25, 0x0201
    13aa:	01 97       	sbiw	r24, 0x01	; 1
    13ac:	90 93 01 02 	sts	0x0201, r25
    13b0:	80 93 00 02 	sts	0x0200, r24
}
    13b4:	df 91       	pop	r29
    13b6:	cf 91       	pop	r28
    13b8:	08 95       	ret

000013ba <terminalCheck2>:
void terminalCheck2()
{
    13ba:	cf 93       	push	r28
    13bc:	df 93       	push	r29
	if (flag == 0)
    13be:	80 91 54 02 	lds	r24, 0x0254
    13c2:	90 91 55 02 	lds	r25, 0x0255
    13c6:	89 2b       	or	r24, r25
    13c8:	39 f5       	brne	.+78     	; 0x1418 <terminalCheck2+0x5e>
	{
		if (dir == 0)
    13ca:	80 91 4e 02 	lds	r24, 0x024E
    13ce:	90 91 4f 02 	lds	r25, 0x024F
    13d2:	89 2b       	or	r24, r25
    13d4:	71 f4       	brne	.+28     	; 0x13f2 <terminalCheck2+0x38>
			if (ot == 0 || ot == 1)
    13d6:	80 91 50 02 	lds	r24, 0x0250
    13da:	90 91 51 02 	lds	r25, 0x0251
    13de:	02 97       	sbiw	r24, 0x02	; 2
    13e0:	20 f4       	brcc	.+8      	; 0x13ea <terminalCheck2+0x30>
				forward_mm(30);
    13e2:	8e e1       	ldi	r24, 0x1E	; 30
    13e4:	90 e0       	ldi	r25, 0x00	; 0
    13e6:	be da       	rcall	.-2692   	; 0x964 <forward_mm>
    13e8:	11 c0       	rjmp	.+34     	; 0x140c <terminalCheck2+0x52>
			else back_mm(30);
    13ea:	8e e1       	ldi	r24, 0x1E	; 30
    13ec:	90 e0       	ldi	r25, 0x00	; 0
    13ee:	c3 da       	rcall	.-2682   	; 0x976 <back_mm>
    13f0:	0d c0       	rjmp	.+26     	; 0x140c <terminalCheck2+0x52>
		else if (ot == 0 || ot == 1)
    13f2:	80 91 50 02 	lds	r24, 0x0250
    13f6:	90 91 51 02 	lds	r25, 0x0251
    13fa:	02 97       	sbiw	r24, 0x02	; 2
    13fc:	20 f4       	brcc	.+8      	; 0x1406 <terminalCheck2+0x4c>
			back_mm(30);
    13fe:	8e e1       	ldi	r24, 0x1E	; 30
    1400:	90 e0       	ldi	r25, 0x00	; 0
    1402:	b9 da       	rcall	.-2702   	; 0x976 <back_mm>
    1404:	03 c0       	rjmp	.+6      	; 0x140c <terminalCheck2+0x52>
		else forward_mm(30);
    1406:	8e e1       	ldi	r24, 0x1E	; 30
    1408:	90 e0       	ldi	r25, 0x00	; 0
    140a:	ac da       	rcall	.-2728   	; 0x964 <forward_mm>
		flag = 1;
    140c:	81 e0       	ldi	r24, 0x01	; 1
    140e:	90 e0       	ldi	r25, 0x00	; 0
    1410:	90 93 55 02 	sts	0x0255, r25
    1414:	80 93 54 02 	sts	0x0254, r24
	}

	if (((ct == 0 || ct == 1) && dir == 0) || ((ct == 2 || ct == 3) && dir == 2))
    1418:	80 91 87 02 	lds	r24, 0x0287
    141c:	90 91 88 02 	lds	r25, 0x0288
    1420:	82 30       	cpi	r24, 0x02	; 2
    1422:	91 05       	cpc	r25, r1
    1424:	30 f4       	brcc	.+12     	; 0x1432 <terminalCheck2+0x78>
    1426:	20 91 4e 02 	lds	r18, 0x024E
    142a:	30 91 4f 02 	lds	r19, 0x024F
    142e:	23 2b       	or	r18, r19
    1430:	69 f0       	breq	.+26     	; 0x144c <terminalCheck2+0x92>
    1432:	9c 01       	movw	r18, r24
    1434:	22 50       	subi	r18, 0x02	; 2
    1436:	31 09       	sbc	r19, r1
    1438:	22 30       	cpi	r18, 0x02	; 2
    143a:	31 05       	cpc	r19, r1
    143c:	48 f4       	brcc	.+18     	; 0x1450 <terminalCheck2+0x96>
    143e:	40 91 4e 02 	lds	r20, 0x024E
    1442:	50 91 4f 02 	lds	r21, 0x024F
    1446:	42 30       	cpi	r20, 0x02	; 2
    1448:	51 05       	cpc	r21, r1
    144a:	11 f4       	brne	.+4      	; 0x1450 <terminalCheck2+0x96>
		turnLeft();
    144c:	c8 dc       	rcall	.-1648   	; 0xdde <turnLeft>
    144e:	14 c0       	rjmp	.+40     	; 0x1478 <terminalCheck2+0xbe>
	else if (((ct == 0 || ct == 1) && dir == 2) || ((ct == 2 || ct == 3) && dir == 0))
    1450:	02 97       	sbiw	r24, 0x02	; 2
    1452:	30 f4       	brcc	.+12     	; 0x1460 <terminalCheck2+0xa6>
    1454:	80 91 4e 02 	lds	r24, 0x024E
    1458:	90 91 4f 02 	lds	r25, 0x024F
    145c:	02 97       	sbiw	r24, 0x02	; 2
    145e:	49 f0       	breq	.+18     	; 0x1472 <terminalCheck2+0xb8>
    1460:	22 30       	cpi	r18, 0x02	; 2
    1462:	31 05       	cpc	r19, r1
    1464:	40 f4       	brcc	.+16     	; 0x1476 <terminalCheck2+0xbc>
    1466:	80 91 4e 02 	lds	r24, 0x024E
    146a:	90 91 4f 02 	lds	r25, 0x024F
    146e:	89 2b       	or	r24, r25
    1470:	11 f4       	brne	.+4      	; 0x1476 <terminalCheck2+0xbc>
		turnRight();
    1472:	67 dc       	rcall	.-1842   	; 0xd42 <turnRight>
    1474:	01 c0       	rjmp	.+2      	; 0x1478 <terminalCheck2+0xbe>
	else turn();
    1476:	01 dd       	rcall	.-1534   	; 0xe7a <turn>
	//printf("Enter term[%d][%d]\n", ct, 1);
	//scanf("%d", &term[ct][1]);
	term[ct][1] = scan();
    1478:	c0 91 87 02 	lds	r28, 0x0287
    147c:	d0 91 88 02 	lds	r29, 0x0288
    1480:	db dd       	rcall	.-1098   	; 0x1038 <scan>
    1482:	cc 0f       	add	r28, r28
    1484:	dd 1f       	adc	r29, r29
    1486:	cc 0f       	add	r28, r28
    1488:	dd 1f       	adc	r29, r29
    148a:	c5 57       	subi	r28, 0x75	; 117
    148c:	dd 4f       	sbci	r29, 0xFD	; 253
    148e:	9b 83       	std	Y+3, r25	; 0x03
    1490:	8a 83       	std	Y+2, r24	; 0x02
	if(term[ct][1]==-1)
    1492:	e0 91 87 02 	lds	r30, 0x0287
    1496:	f0 91 88 02 	lds	r31, 0x0288
    149a:	ee 0f       	add	r30, r30
    149c:	ff 1f       	adc	r31, r31
    149e:	ee 0f       	add	r30, r30
    14a0:	ff 1f       	adc	r31, r31
    14a2:	e5 57       	subi	r30, 0x75	; 117
    14a4:	fd 4f       	sbci	r31, 0xFD	; 253
    14a6:	42 81       	ldd	r20, Z+2	; 0x02
    14a8:	53 81       	ldd	r21, Z+3	; 0x03
    14aa:	4f 3f       	cpi	r20, 0xFF	; 255
    14ac:	2f ef       	ldi	r18, 0xFF	; 255
    14ae:	52 07       	cpc	r21, r18
    14b0:	49 f4       	brne	.+18     	; 0x14c4 <terminalCheck2+0x10a>
		lcd_print(2,11,9, 1);
    14b2:	21 e0       	ldi	r18, 0x01	; 1
    14b4:	30 e0       	ldi	r19, 0x00	; 0
    14b6:	49 e0       	ldi	r20, 0x09	; 9
    14b8:	50 e0       	ldi	r21, 0x00	; 0
    14ba:	6b e0       	ldi	r22, 0x0B	; 11
    14bc:	82 e0       	ldi	r24, 0x02	; 2
    14be:	0e 94 60 01 	call	0x2c0	; 0x2c0 <lcd_print>
    14c2:	06 c0       	rjmp	.+12     	; 0x14d0 <terminalCheck2+0x116>
	else
		lcd_print(2,11, term[ct][1], 1);
    14c4:	21 e0       	ldi	r18, 0x01	; 1
    14c6:	30 e0       	ldi	r19, 0x00	; 0
    14c8:	6b e0       	ldi	r22, 0x0B	; 11
    14ca:	82 e0       	ldi	r24, 0x02	; 2
    14cc:	0e 94 60 01 	call	0x2c0	; 0x2c0 <lcd_print>
    14d0:	4f ef       	ldi	r20, 0xFF	; 255
    14d2:	8f ef       	ldi	r24, 0xFF	; 255
    14d4:	9c e2       	ldi	r25, 0x2C	; 44
    14d6:	41 50       	subi	r20, 0x01	; 1
    14d8:	80 40       	sbci	r24, 0x00	; 0
    14da:	90 40       	sbci	r25, 0x00	; 0
    14dc:	e1 f7       	brne	.-8      	; 0x14d6 <terminalCheck2+0x11c>
    14de:	00 c0       	rjmp	.+0      	; 0x14e0 <terminalCheck2+0x126>
    14e0:	00 00       	nop
	_delay_ms(1000);
	if (term[ct][1] == -1 || term[ct][1] == color[ct])
    14e2:	80 91 87 02 	lds	r24, 0x0287
    14e6:	90 91 88 02 	lds	r25, 0x0288
    14ea:	fc 01       	movw	r30, r24
    14ec:	ee 0f       	add	r30, r30
    14ee:	ff 1f       	adc	r31, r31
    14f0:	ee 0f       	add	r30, r30
    14f2:	ff 1f       	adc	r31, r31
    14f4:	e5 57       	subi	r30, 0x75	; 117
    14f6:	fd 4f       	sbci	r31, 0xFD	; 253
    14f8:	22 81       	ldd	r18, Z+2	; 0x02
    14fa:	33 81       	ldd	r19, Z+3	; 0x03
    14fc:	2f 3f       	cpi	r18, 0xFF	; 255
    14fe:	4f ef       	ldi	r20, 0xFF	; 255
    1500:	34 07       	cpc	r19, r20
    1502:	51 f0       	breq	.+20     	; 0x1518 <terminalCheck2+0x15e>
    1504:	fc 01       	movw	r30, r24
    1506:	ee 0f       	add	r30, r30
    1508:	ff 1f       	adc	r31, r31
    150a:	e3 56       	subi	r30, 0x63	; 99
    150c:	fd 4f       	sbci	r31, 0xFD	; 253
    150e:	40 81       	ld	r20, Z
    1510:	51 81       	ldd	r21, Z+1	; 0x01
    1512:	24 17       	cp	r18, r20
    1514:	35 07       	cpc	r19, r21
    1516:	51 f4       	brne	.+20     	; 0x152c <terminalCheck2+0x172>
		total--;
    1518:	20 91 00 02 	lds	r18, 0x0200
    151c:	30 91 01 02 	lds	r19, 0x0201
    1520:	21 50       	subi	r18, 0x01	; 1
    1522:	31 09       	sbc	r19, r1
    1524:	30 93 01 02 	sts	0x0201, r19
    1528:	20 93 00 02 	sts	0x0200, r18
	visited[ct] = 1;
    152c:	fc 01       	movw	r30, r24
    152e:	ee 0f       	add	r30, r30
    1530:	ff 1f       	adc	r31, r31
    1532:	ec 59       	subi	r30, 0x9C	; 156
    1534:	fd 4f       	sbci	r31, 0xFD	; 253
    1536:	81 e0       	ldi	r24, 0x01	; 1
    1538:	90 e0       	ldi	r25, 0x00	; 0
    153a:	91 83       	std	Z+1, r25	; 0x01
    153c:	80 83       	st	Z, r24
	visitedCount++;
    153e:	80 91 52 02 	lds	r24, 0x0252
    1542:	90 91 53 02 	lds	r25, 0x0253
    1546:	01 96       	adiw	r24, 0x01	; 1
    1548:	90 93 53 02 	sts	0x0253, r25
    154c:	80 93 52 02 	sts	0x0252, r24
}
    1550:	df 91       	pop	r29
    1552:	cf 91       	pop	r28
    1554:	08 95       	ret

00001556 <pick>:

void pick(int side)
{
    1556:	cf 93       	push	r28
    1558:	df 93       	push	r29
    155a:	ec 01       	movw	r28, r24
	elevate(0, side);//lower
    155c:	68 2f       	mov	r22, r24
    155e:	80 e0       	ldi	r24, 0x00	; 0
    1560:	95 db       	rcall	.-2262   	; 0xc8c <elevate>
	open(side);
    1562:	8c 2f       	mov	r24, r28
    1564:	a0 db       	rcall	.-2240   	; 0xca6 <open>
	close(side);
    1566:	8c 2f       	mov	r24, r28
    1568:	ae db       	rcall	.-2212   	; 0xcc6 <close>
	elevate(45, side);//mid
    156a:	6c 2f       	mov	r22, r28
    156c:	8d e2       	ldi	r24, 0x2D	; 45
    156e:	8e db       	rcall	.-2276   	; 0xc8c <elevate>
	armCount--;
    1570:	80 91 02 02 	lds	r24, 0x0202
    1574:	90 91 03 02 	lds	r25, 0x0203
    1578:	01 97       	sbiw	r24, 0x01	; 1
    157a:	90 93 03 02 	sts	0x0203, r25
    157e:	80 93 02 02 	sts	0x0202, r24
	if (side == 0)
    1582:	cd 2b       	or	r28, r29
    1584:	21 f4       	brne	.+8      	; 0x158e <pick+0x38>
		lcd("pickRight");
    1586:	83 e2       	ldi	r24, 0x23	; 35
    1588:	92 e0       	ldi	r25, 0x02	; 2
    158a:	b9 db       	rcall	.-2190   	; 0xcfe <lcd>
    158c:	03 c0       	rjmp	.+6      	; 0x1594 <pick+0x3e>
	else
		lcd("pickLeft");
    158e:	8d e2       	ldi	r24, 0x2D	; 45
    1590:	92 e0       	ldi	r25, 0x02	; 2
    1592:	b5 db       	rcall	.-2198   	; 0xcfe <lcd>
}
    1594:	df 91       	pop	r29
    1596:	cf 91       	pop	r28
    1598:	08 95       	ret

0000159a <position>:

void position(int armNo, int side)
{
    159a:	0f 93       	push	r16
    159c:	1f 93       	push	r17
    159e:	cf 93       	push	r28
    15a0:	df 93       	push	r29
    15a2:	8c 01       	movw	r16, r24
    15a4:	eb 01       	movw	r28, r22
	if (ct == ot)
    15a6:	20 91 87 02 	lds	r18, 0x0287
    15aa:	30 91 88 02 	lds	r19, 0x0288
    15ae:	40 91 50 02 	lds	r20, 0x0250
    15b2:	50 91 51 02 	lds	r21, 0x0251
    15b6:	24 17       	cp	r18, r20
    15b8:	35 07       	cpc	r19, r21
    15ba:	09 f0       	breq	.+2      	; 0x15be <position+0x24>
    15bc:	7d c0       	rjmp	.+250    	; 0x16b8 <position+0x11e>
	{
		if (((ct == 0 || ct == 1) && dir == 0) || ((ct == 2 || ct == 3) && dir == 2))
    15be:	c9 01       	movw	r24, r18
    15c0:	22 30       	cpi	r18, 0x02	; 2
    15c2:	31 05       	cpc	r19, r1
    15c4:	30 f4       	brcc	.+12     	; 0x15d2 <position+0x38>
    15c6:	40 91 4e 02 	lds	r20, 0x024E
    15ca:	50 91 4f 02 	lds	r21, 0x024F
    15ce:	45 2b       	or	r20, r21
    15d0:	61 f0       	breq	.+24     	; 0x15ea <position+0x50>
    15d2:	22 50       	subi	r18, 0x02	; 2
    15d4:	31 09       	sbc	r19, r1
    15d6:	22 30       	cpi	r18, 0x02	; 2
    15d8:	31 05       	cpc	r19, r1
    15da:	68 f4       	brcc	.+26     	; 0x15f6 <position+0x5c>
    15dc:	40 91 4e 02 	lds	r20, 0x024E
    15e0:	50 91 4f 02 	lds	r21, 0x024F
    15e4:	42 30       	cpi	r20, 0x02	; 2
    15e6:	51 05       	cpc	r21, r1
    15e8:	31 f4       	brne	.+12     	; 0x15f6 <position+0x5c>
		{
			if (armNo != side)
    15ea:	0c 17       	cp	r16, r28
    15ec:	1d 07       	cpc	r17, r29
    15ee:	09 f4       	brne	.+2      	; 0x15f2 <position+0x58>
    15f0:	4c c0       	rjmp	.+152    	; 0x168a <position+0xf0>
				turn();
    15f2:	43 dc       	rcall	.-1914   	; 0xe7a <turn>
    15f4:	4a c0       	rjmp	.+148    	; 0x168a <position+0xf0>
		}
		else	if (((ct == 0 || ct == 1) && dir == 2) || ((ct == 2 || ct == 3) && dir == 0))
    15f6:	82 30       	cpi	r24, 0x02	; 2
    15f8:	91 05       	cpc	r25, r1
    15fa:	38 f4       	brcc	.+14     	; 0x160a <position+0x70>
    15fc:	40 91 4e 02 	lds	r20, 0x024E
    1600:	50 91 4f 02 	lds	r21, 0x024F
    1604:	42 30       	cpi	r20, 0x02	; 2
    1606:	51 05       	cpc	r21, r1
    1608:	49 f0       	breq	.+18     	; 0x161c <position+0x82>
    160a:	22 30       	cpi	r18, 0x02	; 2
    160c:	31 05       	cpc	r19, r1
    160e:	58 f4       	brcc	.+22     	; 0x1626 <position+0x8c>
    1610:	40 91 4e 02 	lds	r20, 0x024E
    1614:	50 91 4f 02 	lds	r21, 0x024F
    1618:	45 2b       	or	r20, r21
    161a:	29 f4       	brne	.+10     	; 0x1626 <position+0x8c>
		{
			if (armNo == side)
    161c:	0c 17       	cp	r16, r28
    161e:	1d 07       	cpc	r17, r29
    1620:	a1 f5       	brne	.+104    	; 0x168a <position+0xf0>
				turn();
    1622:	2b dc       	rcall	.-1962   	; 0xe7a <turn>
    1624:	32 c0       	rjmp	.+100    	; 0x168a <position+0xf0>
		}
		else if (((ct == 0 || ct == 1) && dir == 1) || ((ct == 2 || ct == 3) && dir == 3))
    1626:	82 30       	cpi	r24, 0x02	; 2
    1628:	91 05       	cpc	r25, r1
    162a:	38 f4       	brcc	.+14     	; 0x163a <position+0xa0>
    162c:	40 91 4e 02 	lds	r20, 0x024E
    1630:	50 91 4f 02 	lds	r21, 0x024F
    1634:	41 30       	cpi	r20, 0x01	; 1
    1636:	51 05       	cpc	r21, r1
    1638:	51 f0       	breq	.+20     	; 0x164e <position+0xb4>
    163a:	22 30       	cpi	r18, 0x02	; 2
    163c:	31 05       	cpc	r19, r1
    163e:	70 f4       	brcc	.+28     	; 0x165c <position+0xc2>
    1640:	40 91 4e 02 	lds	r20, 0x024E
    1644:	50 91 4f 02 	lds	r21, 0x024F
    1648:	43 30       	cpi	r20, 0x03	; 3
    164a:	51 05       	cpc	r21, r1
    164c:	39 f4       	brne	.+14     	; 0x165c <position+0xc2>
		{
			if (armNo != side)
    164e:	0c 17       	cp	r16, r28
    1650:	1d 07       	cpc	r17, r29
    1652:	11 f0       	breq	.+4      	; 0x1658 <position+0xbe>
				turnRight();
    1654:	76 db       	rcall	.-2324   	; 0xd42 <turnRight>
    1656:	19 c0       	rjmp	.+50     	; 0x168a <position+0xf0>
			else turnLeft();
    1658:	c2 db       	rcall	.-2172   	; 0xdde <turnLeft>
    165a:	17 c0       	rjmp	.+46     	; 0x168a <position+0xf0>
		}
		else	if (((ct == 0 || ct == 1) && dir == 3) || ((ct == 2 || ct == 3) && dir == 1))
    165c:	02 97       	sbiw	r24, 0x02	; 2
    165e:	30 f4       	brcc	.+12     	; 0x166c <position+0xd2>
    1660:	80 91 4e 02 	lds	r24, 0x024E
    1664:	90 91 4f 02 	lds	r25, 0x024F
    1668:	03 97       	sbiw	r24, 0x03	; 3
    166a:	49 f0       	breq	.+18     	; 0x167e <position+0xe4>
    166c:	22 30       	cpi	r18, 0x02	; 2
    166e:	31 05       	cpc	r19, r1
    1670:	60 f4       	brcc	.+24     	; 0x168a <position+0xf0>
    1672:	80 91 4e 02 	lds	r24, 0x024E
    1676:	90 91 4f 02 	lds	r25, 0x024F
    167a:	01 97       	sbiw	r24, 0x01	; 1
    167c:	31 f4       	brne	.+12     	; 0x168a <position+0xf0>
			if (armNo == side)
    167e:	0c 17       	cp	r16, r28
    1680:	1d 07       	cpc	r17, r29
    1682:	11 f4       	brne	.+4      	; 0x1688 <position+0xee>
				turnRight();
    1684:	5e db       	rcall	.-2372   	; 0xd42 <turnRight>
    1686:	01 c0       	rjmp	.+2      	; 0x168a <position+0xf0>
			else turnLeft();
    1688:	aa db       	rcall	.-2220   	; 0xdde <turnLeft>
		if (flag == 1 && (dir == 0 || dir == 2))
    168a:	80 91 54 02 	lds	r24, 0x0254
    168e:	90 91 55 02 	lds	r25, 0x0255
    1692:	01 97       	sbiw	r24, 0x01	; 1
    1694:	09 f0       	breq	.+2      	; 0x1698 <position+0xfe>
    1696:	64 c0       	rjmp	.+200    	; 0x1760 <position+0x1c6>
    1698:	80 91 4e 02 	lds	r24, 0x024E
    169c:	90 91 4f 02 	lds	r25, 0x024F
    16a0:	8d 7f       	andi	r24, 0xFD	; 253
    16a2:	89 2b       	or	r24, r25
    16a4:	09 f0       	breq	.+2      	; 0x16a8 <position+0x10e>
    16a6:	5c c0       	rjmp	.+184    	; 0x1760 <position+0x1c6>
		{
			back_mm(30);
    16a8:	8e e1       	ldi	r24, 0x1E	; 30
    16aa:	90 e0       	ldi	r25, 0x00	; 0
    16ac:	64 d9       	rcall	.-3384   	; 0x976 <back_mm>
			flag = 0;
    16ae:	10 92 55 02 	sts	0x0255, r1
    16b2:	10 92 54 02 	sts	0x0254, r1
    16b6:	54 c0       	rjmp	.+168    	; 0x1760 <position+0x1c6>
		}
	}
	else
	{
		if (dir == 1 || dir == 3)
    16b8:	80 91 4e 02 	lds	r24, 0x024E
    16bc:	90 91 4f 02 	lds	r25, 0x024F
    16c0:	8d 7f       	andi	r24, 0xFD	; 253
    16c2:	01 97       	sbiw	r24, 0x01	; 1
    16c4:	49 f4       	brne	.+18     	; 0x16d8 <position+0x13e>
			if (ct == 0 || ct == 3)
    16c6:	21 15       	cp	r18, r1
    16c8:	31 05       	cpc	r19, r1
    16ca:	19 f0       	breq	.+6      	; 0x16d2 <position+0x138>
    16cc:	23 30       	cpi	r18, 0x03	; 3
    16ce:	31 05       	cpc	r19, r1
    16d0:	11 f4       	brne	.+4      	; 0x16d6 <position+0x13c>
				turnRight();
    16d2:	37 db       	rcall	.-2450   	; 0xd42 <turnRight>
    16d4:	01 c0       	rjmp	.+2      	; 0x16d8 <position+0x13e>
			else turnLeft();
    16d6:	83 db       	rcall	.-2298   	; 0xdde <turnLeft>
		if (dir == 0 || dir == 2)
    16d8:	20 91 4e 02 	lds	r18, 0x024E
    16dc:	30 91 4f 02 	lds	r19, 0x024F
    16e0:	21 15       	cp	r18, r1
    16e2:	31 05       	cpc	r19, r1
    16e4:	21 f0       	breq	.+8      	; 0x16ee <position+0x154>
    16e6:	22 30       	cpi	r18, 0x02	; 2
    16e8:	31 05       	cpc	r19, r1
    16ea:	91 f5       	brne	.+100    	; 0x1750 <position+0x1b6>
    16ec:	07 c0       	rjmp	.+14     	; 0x16fc <position+0x162>
		{
			if ((dir == 0 && (ct == 0 || ct == 1)) || (dir == 2 && (ct == 2 || ct == 3)))
    16ee:	80 91 87 02 	lds	r24, 0x0287
    16f2:	90 91 88 02 	lds	r25, 0x0288
    16f6:	02 97       	sbiw	r24, 0x02	; 2
    16f8:	c8 f4       	brcc	.+50     	; 0x172c <position+0x192>
    16fa:	07 c0       	rjmp	.+14     	; 0x170a <position+0x170>
    16fc:	80 91 87 02 	lds	r24, 0x0287
    1700:	90 91 88 02 	lds	r25, 0x0288
    1704:	02 97       	sbiw	r24, 0x02	; 2
    1706:	02 97       	sbiw	r24, 0x02	; 2
    1708:	88 f4       	brcc	.+34     	; 0x172c <position+0x192>
			{
				if (ot != 4 && ot != 5)
    170a:	80 91 50 02 	lds	r24, 0x0250
    170e:	90 91 51 02 	lds	r25, 0x0251
    1712:	04 97       	sbiw	r24, 0x04	; 4
    1714:	02 97       	sbiw	r24, 0x02	; 2
    1716:	10 f0       	brcs	.+4      	; 0x171c <position+0x182>
				{
					turnLeft();
    1718:	62 db       	rcall	.-2364   	; 0xdde <turnLeft>
					front();
    171a:	08 db       	rcall	.-2544   	; 0xd2c <front>
				}
				if (armNo == side)
    171c:	0c 17       	cp	r16, r28
    171e:	1d 07       	cpc	r17, r29
    1720:	11 f4       	brne	.+4      	; 0x1726 <position+0x18c>
				{
					front();
    1722:	04 db       	rcall	.-2552   	; 0xd2c <front>
    1724:	15 c0       	rjmp	.+42     	; 0x1750 <position+0x1b6>
				}
				else
				{
					front();
    1726:	02 db       	rcall	.-2556   	; 0xd2c <front>
					turn();
    1728:	a8 db       	rcall	.-2224   	; 0xe7a <turn>
    172a:	12 c0       	rjmp	.+36     	; 0x1750 <position+0x1b6>
				}
			}
			else
			{
				if (ot != 4 && ot != 5)
    172c:	80 91 50 02 	lds	r24, 0x0250
    1730:	90 91 51 02 	lds	r25, 0x0251
    1734:	04 97       	sbiw	r24, 0x04	; 4
    1736:	02 97       	sbiw	r24, 0x02	; 2
    1738:	10 f0       	brcs	.+4      	; 0x173e <position+0x1a4>
				{
					turnLeft();
    173a:	51 db       	rcall	.-2398   	; 0xdde <turnLeft>
					front();
    173c:	f7 da       	rcall	.-2578   	; 0xd2c <front>
				}
				if (armNo == side)
    173e:	0c 17       	cp	r16, r28
    1740:	1d 07       	cpc	r17, r29
    1742:	19 f4       	brne	.+6      	; 0x174a <position+0x1b0>
				{
					turn();
    1744:	9a db       	rcall	.-2252   	; 0xe7a <turn>
					front();
    1746:	f2 da       	rcall	.-2588   	; 0xd2c <front>
    1748:	03 c0       	rjmp	.+6      	; 0x1750 <position+0x1b6>
				}
				else
				{
					turn();
    174a:	97 db       	rcall	.-2258   	; 0xe7a <turn>
					front();
    174c:	ef da       	rcall	.-2594   	; 0xd2c <front>
					turn();
    174e:	95 db       	rcall	.-2262   	; 0xe7a <turn>
				}
			}
		}
		ot = ct;
    1750:	80 91 87 02 	lds	r24, 0x0287
    1754:	90 91 88 02 	lds	r25, 0x0288
    1758:	90 93 51 02 	sts	0x0251, r25
    175c:	80 93 50 02 	sts	0x0250, r24
	}
}
    1760:	df 91       	pop	r29
    1762:	cf 91       	pop	r28
    1764:	1f 91       	pop	r17
    1766:	0f 91       	pop	r16
    1768:	08 95       	ret

0000176a <pickNode>:
void pickNode(int armNo, int side)
{
    176a:	0f 93       	push	r16
    176c:	1f 93       	push	r17
    176e:	cf 93       	push	r28
    1770:	df 93       	push	r29
    1772:	8c 01       	movw	r16, r24
    1774:	eb 01       	movw	r28, r22
	arm[armNo] = term[ct][side];
    1776:	fc 01       	movw	r30, r24
    1778:	ee 0f       	add	r30, r30
    177a:	ff 1f       	adc	r31, r31
    177c:	ef 54       	subi	r30, 0x4F	; 79
    177e:	fd 4f       	sbci	r31, 0xFD	; 253
    1780:	a0 91 87 02 	lds	r26, 0x0287
    1784:	b0 91 88 02 	lds	r27, 0x0288
    1788:	aa 0f       	add	r26, r26
    178a:	bb 1f       	adc	r27, r27
    178c:	a6 0f       	add	r26, r22
    178e:	b7 1f       	adc	r27, r23
    1790:	aa 0f       	add	r26, r26
    1792:	bb 1f       	adc	r27, r27
    1794:	a5 57       	subi	r26, 0x75	; 117
    1796:	bd 4f       	sbci	r27, 0xFD	; 253
    1798:	8d 91       	ld	r24, X+
    179a:	9c 91       	ld	r25, X
    179c:	91 83       	std	Z+1, r25	; 0x01
    179e:	80 83       	st	Z, r24
	position(armNo, side);
    17a0:	c8 01       	movw	r24, r16
    17a2:	fb de       	rcall	.-522    	; 0x159a <position>
	pick(armNo);
    17a4:	c8 01       	movw	r24, r16
    17a6:	d7 de       	rcall	.-594    	; 0x1556 <pick>
	term[ct][side] = -1;
    17a8:	80 91 87 02 	lds	r24, 0x0287
    17ac:	90 91 88 02 	lds	r25, 0x0288
    17b0:	88 0f       	add	r24, r24
    17b2:	99 1f       	adc	r25, r25
    17b4:	c8 0f       	add	r28, r24
    17b6:	d9 1f       	adc	r29, r25
    17b8:	cc 0f       	add	r28, r28
    17ba:	dd 1f       	adc	r29, r29
    17bc:	c5 57       	subi	r28, 0x75	; 117
    17be:	dd 4f       	sbci	r29, 0xFD	; 253
    17c0:	8f ef       	ldi	r24, 0xFF	; 255
    17c2:	9f ef       	ldi	r25, 0xFF	; 255
    17c4:	99 83       	std	Y+1, r25	; 0x01
    17c6:	88 83       	st	Y, r24
	//printf("Arm %d picked %d from term[%d][%d]\n", armNo, arm[armNo], ct, side);
}
    17c8:	df 91       	pop	r29
    17ca:	cf 91       	pop	r28
    17cc:	1f 91       	pop	r17
    17ce:	0f 91       	pop	r16
    17d0:	08 95       	ret

000017d2 <pickSort>:

void pickSort(int armNo, int sortNo)
{
    17d2:	0f 93       	push	r16
    17d4:	1f 93       	push	r17
    17d6:	cf 93       	push	r28
    17d8:	df 93       	push	r29
    17da:	ec 01       	movw	r28, r24
    17dc:	8b 01       	movw	r16, r22
	arm[armNo] = sort[sortNo];
    17de:	fc 01       	movw	r30, r24
    17e0:	ee 0f       	add	r30, r30
    17e2:	ff 1f       	adc	r31, r31
    17e4:	ef 54       	subi	r30, 0x4F	; 79
    17e6:	fd 4f       	sbci	r31, 0xFD	; 253
    17e8:	db 01       	movw	r26, r22
    17ea:	aa 0f       	add	r26, r26
    17ec:	bb 1f       	adc	r27, r27
    17ee:	ad 57       	subi	r26, 0x7D	; 125
    17f0:	bd 4f       	sbci	r27, 0xFD	; 253
    17f2:	8d 91       	ld	r24, X+
    17f4:	9c 91       	ld	r25, X
    17f6:	91 83       	std	Z+1, r25	; 0x01
    17f8:	80 83       	st	Z, r24
	if (((armNo == sortNo) && dir == 0) || ((armNo != sortNo) && dir == 2))
    17fa:	c6 17       	cp	r28, r22
    17fc:	d7 07       	cpc	r29, r23
    17fe:	39 f4       	brne	.+14     	; 0x180e <pickSort+0x3c>
    1800:	80 91 4e 02 	lds	r24, 0x024E
    1804:	90 91 4f 02 	lds	r25, 0x024F
    1808:	89 2b       	or	r24, r25
    180a:	49 f4       	brne	.+18     	; 0x181e <pickSort+0x4c>
    180c:	06 c0       	rjmp	.+12     	; 0x181a <pickSort+0x48>
    180e:	80 91 4e 02 	lds	r24, 0x024E
    1812:	90 91 4f 02 	lds	r25, 0x024F
    1816:	02 97       	sbiw	r24, 0x02	; 2
    1818:	11 f4       	brne	.+4      	; 0x181e <pickSort+0x4c>
		turn();
    181a:	2f db       	rcall	.-2466   	; 0xe7a <turn>
    181c:	0c c0       	rjmp	.+24     	; 0x1836 <pickSort+0x64>
	else
	{
		if (dir == 1 || dir == 3)
    181e:	80 91 4e 02 	lds	r24, 0x024E
    1822:	90 91 4f 02 	lds	r25, 0x024F
    1826:	8d 7f       	andi	r24, 0xFD	; 253
    1828:	01 97       	sbiw	r24, 0x01	; 1
    182a:	29 f4       	brne	.+10     	; 0x1836 <pickSort+0x64>
			if (armNo == 0)
    182c:	20 97       	sbiw	r28, 0x00	; 0
    182e:	11 f4       	brne	.+4      	; 0x1834 <pickSort+0x62>
				turnLeft();
    1830:	d6 da       	rcall	.-2644   	; 0xdde <turnLeft>
    1832:	01 c0       	rjmp	.+2      	; 0x1836 <pickSort+0x64>
			else turnRight();
    1834:	86 da       	rcall	.-2804   	; 0xd42 <turnRight>
	}
	pick(armNo);
    1836:	ce 01       	movw	r24, r28
    1838:	8e de       	rcall	.-740    	; 0x1556 <pick>
	sort[sortNo] = -1;
    183a:	f8 01       	movw	r30, r16
    183c:	ee 0f       	add	r30, r30
    183e:	ff 1f       	adc	r31, r31
    1840:	ed 57       	subi	r30, 0x7D	; 125
    1842:	fd 4f       	sbci	r31, 0xFD	; 253
    1844:	8f ef       	ldi	r24, 0xFF	; 255
    1846:	9f ef       	ldi	r25, 0xFF	; 255
    1848:	91 83       	std	Z+1, r25	; 0x01
    184a:	80 83       	st	Z, r24
	//printf("Arm %d picked %d from sort[%d]\n", armNo, arm[armNo], sortNo);
}
    184c:	df 91       	pop	r29
    184e:	cf 91       	pop	r28
    1850:	1f 91       	pop	r17
    1852:	0f 91       	pop	r16
    1854:	08 95       	ret

00001856 <pickup>:
void pickup()
{
    1856:	ef 92       	push	r14
    1858:	ff 92       	push	r15
    185a:	0f 93       	push	r16
    185c:	1f 93       	push	r17
    185e:	cf 93       	push	r28
    1860:	df 93       	push	r29
	int arm0 = 0, arm1 = 1;
	if (((ct == 0 || ct == 1) && dir == 2) || ((ct == 2 || ct == 3) && dir == 0))
    1862:	20 91 87 02 	lds	r18, 0x0287
    1866:	30 91 88 02 	lds	r19, 0x0288
    186a:	22 30       	cpi	r18, 0x02	; 2
    186c:	31 05       	cpc	r19, r1
    186e:	30 f4       	brcc	.+12     	; 0x187c <pickup+0x26>
    1870:	80 91 4e 02 	lds	r24, 0x024E
    1874:	90 91 4f 02 	lds	r25, 0x024F
    1878:	02 97       	sbiw	r24, 0x02	; 2
    187a:	79 f0       	breq	.+30     	; 0x189a <pickup+0x44>
    187c:	c9 01       	movw	r24, r18
    187e:	02 97       	sbiw	r24, 0x02	; 2
    1880:	02 97       	sbiw	r24, 0x02	; 2
    1882:	80 f4       	brcc	.+32     	; 0x18a4 <pickup+0x4e>
    1884:	80 91 4e 02 	lds	r24, 0x024E
    1888:	90 91 4f 02 	lds	r25, 0x024F
    188c:	89 2b       	or	r24, r25
    188e:	79 f0       	breq	.+30     	; 0x18ae <pickup+0x58>
	sort[sortNo] = -1;
	//printf("Arm %d picked %d from sort[%d]\n", armNo, arm[armNo], sortNo);
}
void pickup()
{
	int arm0 = 0, arm1 = 1;
    1890:	c1 e0       	ldi	r28, 0x01	; 1
    1892:	d0 e0       	ldi	r29, 0x00	; 0
    1894:	00 e0       	ldi	r16, 0x00	; 0
    1896:	10 e0       	ldi	r17, 0x00	; 0
    1898:	0e c0       	rjmp	.+28     	; 0x18b6 <pickup+0x60>
	if (((ct == 0 || ct == 1) && dir == 2) || ((ct == 2 || ct == 3) && dir == 0))
	{
		arm0 = 1;
		arm1 = 0;
    189a:	c0 e0       	ldi	r28, 0x00	; 0
    189c:	d0 e0       	ldi	r29, 0x00	; 0
void pickup()
{
	int arm0 = 0, arm1 = 1;
	if (((ct == 0 || ct == 1) && dir == 2) || ((ct == 2 || ct == 3) && dir == 0))
	{
		arm0 = 1;
    189e:	01 e0       	ldi	r16, 0x01	; 1
    18a0:	10 e0       	ldi	r17, 0x00	; 0
    18a2:	09 c0       	rjmp	.+18     	; 0x18b6 <pickup+0x60>
	sort[sortNo] = -1;
	//printf("Arm %d picked %d from sort[%d]\n", armNo, arm[armNo], sortNo);
}
void pickup()
{
	int arm0 = 0, arm1 = 1;
    18a4:	c1 e0       	ldi	r28, 0x01	; 1
    18a6:	d0 e0       	ldi	r29, 0x00	; 0
    18a8:	00 e0       	ldi	r16, 0x00	; 0
    18aa:	10 e0       	ldi	r17, 0x00	; 0
    18ac:	04 c0       	rjmp	.+8      	; 0x18b6 <pickup+0x60>
	if (((ct == 0 || ct == 1) && dir == 2) || ((ct == 2 || ct == 3) && dir == 0))
	{
		arm0 = 1;
		arm1 = 0;
    18ae:	c0 e0       	ldi	r28, 0x00	; 0
    18b0:	d0 e0       	ldi	r29, 0x00	; 0
void pickup()
{
	int arm0 = 0, arm1 = 1;
	if (((ct == 0 || ct == 1) && dir == 2) || ((ct == 2 || ct == 3) && dir == 0))
	{
		arm0 = 1;
    18b2:	01 e0       	ldi	r16, 0x01	; 1
    18b4:	10 e0       	ldi	r17, 0x00	; 0
		arm1 = 0;
	}
	if (visited[ct] == 0)
    18b6:	f9 01       	movw	r30, r18
    18b8:	ee 0f       	add	r30, r30
    18ba:	ff 1f       	adc	r31, r31
    18bc:	ec 59       	subi	r30, 0x9C	; 156
    18be:	fd 4f       	sbci	r31, 0xFD	; 253
    18c0:	80 81       	ld	r24, Z
    18c2:	91 81       	ldd	r25, Z+1	; 0x01
    18c4:	89 2b       	or	r24, r25
    18c6:	79 f4       	brne	.+30     	; 0x18e6 <pickup+0x90>
		if (term[ct][0] == -2)
    18c8:	f9 01       	movw	r30, r18
    18ca:	ee 0f       	add	r30, r30
    18cc:	ff 1f       	adc	r31, r31
    18ce:	ee 0f       	add	r30, r30
    18d0:	ff 1f       	adc	r31, r31
    18d2:	e5 57       	subi	r30, 0x75	; 117
    18d4:	fd 4f       	sbci	r31, 0xFD	; 253
    18d6:	80 81       	ld	r24, Z
    18d8:	91 81       	ldd	r25, Z+1	; 0x01
    18da:	02 96       	adiw	r24, 0x02	; 2
    18dc:	19 f4       	brne	.+6      	; 0x18e4 <pickup+0x8e>
		{
		terminalCheck1();
    18de:	a4 dc       	rcall	.-1720   	; 0x1228 <terminalCheck1>
		terminalCheck2();
    18e0:	6c dd       	rcall	.-1320   	; 0x13ba <terminalCheck2>
    18e2:	01 c0       	rjmp	.+2      	; 0x18e6 <pickup+0x90>
		}
		else	terminalCheck2();
    18e4:	6a dd       	rcall	.-1324   	; 0x13ba <terminalCheck2>
		if ((term[ct][0] != color[ct] && term[ct][0] != -1) || (term[ct][1] != color[ct] && term[ct][1] != -1))
    18e6:	20 91 87 02 	lds	r18, 0x0287
    18ea:	30 91 88 02 	lds	r19, 0x0288
    18ee:	f9 01       	movw	r30, r18
    18f0:	ee 0f       	add	r30, r30
    18f2:	ff 1f       	adc	r31, r31
    18f4:	ee 0f       	add	r30, r30
    18f6:	ff 1f       	adc	r31, r31
    18f8:	e5 57       	subi	r30, 0x75	; 117
    18fa:	fd 4f       	sbci	r31, 0xFD	; 253
    18fc:	40 81       	ld	r20, Z
    18fe:	51 81       	ldd	r21, Z+1	; 0x01
    1900:	f9 01       	movw	r30, r18
    1902:	ee 0f       	add	r30, r30
    1904:	ff 1f       	adc	r31, r31
    1906:	e3 56       	subi	r30, 0x63	; 99
    1908:	fd 4f       	sbci	r31, 0xFD	; 253
    190a:	80 81       	ld	r24, Z
    190c:	91 81       	ldd	r25, Z+1	; 0x01
    190e:	48 17       	cp	r20, r24
    1910:	59 07       	cpc	r21, r25
    1912:	21 f0       	breq	.+8      	; 0x191c <pickup+0xc6>
    1914:	4f 3f       	cpi	r20, 0xFF	; 255
    1916:	6f ef       	ldi	r22, 0xFF	; 255
    1918:	56 07       	cpc	r21, r22
    191a:	89 f4       	brne	.+34     	; 0x193e <pickup+0xe8>
    191c:	f9 01       	movw	r30, r18
    191e:	ee 0f       	add	r30, r30
    1920:	ff 1f       	adc	r31, r31
    1922:	ee 0f       	add	r30, r30
    1924:	ff 1f       	adc	r31, r31
    1926:	e5 57       	subi	r30, 0x75	; 117
    1928:	fd 4f       	sbci	r31, 0xFD	; 253
    192a:	62 81       	ldd	r22, Z+2	; 0x02
    192c:	73 81       	ldd	r23, Z+3	; 0x03
    192e:	86 17       	cp	r24, r22
    1930:	97 07       	cpc	r25, r23
    1932:	09 f4       	brne	.+2      	; 0x1936 <pickup+0xe0>
    1934:	ee c1       	rjmp	.+988    	; 0x1d12 <pickup+0x4bc>
    1936:	6f 3f       	cpi	r22, 0xFF	; 255
    1938:	7f 4f       	sbci	r23, 0xFF	; 255
    193a:	09 f4       	brne	.+2      	; 0x193e <pickup+0xe8>
    193c:	ea c1       	rjmp	.+980    	; 0x1d12 <pickup+0x4bc>
		{
			if (armCount == 2)
    193e:	60 91 02 02 	lds	r22, 0x0202
    1942:	70 91 03 02 	lds	r23, 0x0203
    1946:	62 30       	cpi	r22, 0x02	; 2
    1948:	71 05       	cpc	r23, r1
    194a:	09 f0       	breq	.+2      	; 0x194e <pickup+0xf8>
    194c:	b0 c0       	rjmp	.+352    	; 0x1aae <pickup+0x258>
			{
				if (term[ct][0] == color[adj] || term[ct][1] == color[adj])
    194e:	e0 91 ad 02 	lds	r30, 0x02AD
    1952:	f0 91 ae 02 	lds	r31, 0x02AE
    1956:	df 01       	movw	r26, r30
    1958:	aa 0f       	add	r26, r26
    195a:	bb 1f       	adc	r27, r27
    195c:	a3 56       	subi	r26, 0x63	; 99
    195e:	bd 4f       	sbci	r27, 0xFD	; 253
    1960:	6d 91       	ld	r22, X+
    1962:	7c 91       	ld	r23, X
    1964:	46 17       	cp	r20, r22
    1966:	57 07       	cpc	r21, r23
    1968:	79 f0       	breq	.+30     	; 0x1988 <pickup+0x132>
    196a:	d9 01       	movw	r26, r18
    196c:	aa 0f       	add	r26, r26
    196e:	bb 1f       	adc	r27, r27
    1970:	aa 0f       	add	r26, r26
    1972:	bb 1f       	adc	r27, r27
    1974:	a5 57       	subi	r26, 0x75	; 117
    1976:	bd 4f       	sbci	r27, 0xFD	; 253
    1978:	12 96       	adiw	r26, 0x02	; 2
    197a:	ed 90       	ld	r14, X+
    197c:	fc 90       	ld	r15, X
    197e:	13 97       	sbiw	r26, 0x03	; 3
    1980:	6e 15       	cp	r22, r14
    1982:	7f 05       	cpc	r23, r15
    1984:	59 f4       	brne	.+22     	; 0x199c <pickup+0x146>
    1986:	05 c0       	rjmp	.+10     	; 0x1992 <pickup+0x13c>
					if (term[ct][0] == color[adj])
						pickNode(arm0, 0);
    1988:	60 e0       	ldi	r22, 0x00	; 0
    198a:	70 e0       	ldi	r23, 0x00	; 0
    198c:	c8 01       	movw	r24, r16
    198e:	ed de       	rcall	.-550    	; 0x176a <pickNode>
    1990:	8e c0       	rjmp	.+284    	; 0x1aae <pickup+0x258>
					else	pickNode(arm1, 1);
    1992:	61 e0       	ldi	r22, 0x01	; 1
    1994:	70 e0       	ldi	r23, 0x00	; 0
    1996:	ce 01       	movw	r24, r28
    1998:	e8 de       	rcall	.-560    	; 0x176a <pickNode>
    199a:	89 c0       	rjmp	.+274    	; 0x1aae <pickup+0x258>
				else	if ((term[ct][1] != color[ct]) && term[ct][1] != -1)
    199c:	8e 15       	cp	r24, r14
    199e:	9f 05       	cpc	r25, r15
    19a0:	09 f4       	brne	.+2      	; 0x19a4 <pickup+0x14e>
    19a2:	4e c0       	rjmp	.+156    	; 0x1a40 <pickup+0x1ea>
    19a4:	ef 20       	and	r14, r15
    19a6:	e0 94       	com	r14
    19a8:	09 f4       	brne	.+2      	; 0x19ac <pickup+0x156>
    19aa:	4a c0       	rjmp	.+148    	; 0x1a40 <pickup+0x1ea>
				{
					if (term[ct][0] != color[ct] && term[ct][0] != -1)
    19ac:	48 17       	cp	r20, r24
    19ae:	59 07       	cpc	r21, r25
    19b0:	69 f0       	breq	.+26     	; 0x19cc <pickup+0x176>
    19b2:	4f 3f       	cpi	r20, 0xFF	; 255
    19b4:	af ef       	ldi	r26, 0xFF	; 255
    19b6:	5a 07       	cpc	r21, r26
    19b8:	49 f0       	breq	.+18     	; 0x19cc <pickup+0x176>
					{
						pickNode(arm1, 1);
    19ba:	61 e0       	ldi	r22, 0x01	; 1
    19bc:	70 e0       	ldi	r23, 0x00	; 0
    19be:	ce 01       	movw	r24, r28
    19c0:	d4 de       	rcall	.-600    	; 0x176a <pickNode>
						pickNode(arm0, 0);
    19c2:	60 e0       	ldi	r22, 0x00	; 0
    19c4:	70 e0       	ldi	r23, 0x00	; 0
    19c6:	c8 01       	movw	r24, r16
    19c8:	d0 de       	rcall	.-608    	; 0x176a <pickNode>
    19ca:	71 c0       	rjmp	.+226    	; 0x1aae <pickup+0x258>
					}
					else if (sort[ct % 2] == -1 || ((term[adj][0] == color[adj] || term[adj][0] == -1) || (term[adj][1] == color[adj] || term[adj][1] == -1)) || (term[ct][0] == color[ct] || term[ct][1] == color[ct]))
    19cc:	21 70       	andi	r18, 0x01	; 1
    19ce:	30 78       	andi	r19, 0x80	; 128
    19d0:	33 23       	and	r19, r19
    19d2:	34 f4       	brge	.+12     	; 0x19e0 <pickup+0x18a>
    19d4:	21 50       	subi	r18, 0x01	; 1
    19d6:	31 09       	sbc	r19, r1
    19d8:	2e 6f       	ori	r18, 0xFE	; 254
    19da:	3f 6f       	ori	r19, 0xFF	; 255
    19dc:	2f 5f       	subi	r18, 0xFF	; 255
    19de:	3f 4f       	sbci	r19, 0xFF	; 255
    19e0:	d9 01       	movw	r26, r18
    19e2:	aa 0f       	add	r26, r26
    19e4:	bb 1f       	adc	r27, r27
    19e6:	ad 57       	subi	r26, 0x7D	; 125
    19e8:	bd 4f       	sbci	r27, 0xFD	; 253
    19ea:	2d 91       	ld	r18, X+
    19ec:	3c 91       	ld	r19, X
    19ee:	2f 3f       	cpi	r18, 0xFF	; 255
    19f0:	3f 4f       	sbci	r19, 0xFF	; 255
    19f2:	09 f1       	breq	.+66     	; 0x1a36 <pickup+0x1e0>
    19f4:	df 01       	movw	r26, r30
    19f6:	aa 0f       	add	r26, r26
    19f8:	bb 1f       	adc	r27, r27
    19fa:	aa 0f       	add	r26, r26
    19fc:	bb 1f       	adc	r27, r27
    19fe:	a5 57       	subi	r26, 0x75	; 117
    1a00:	bd 4f       	sbci	r27, 0xFD	; 253
    1a02:	2d 91       	ld	r18, X+
    1a04:	3c 91       	ld	r19, X
    1a06:	62 17       	cp	r22, r18
    1a08:	73 07       	cpc	r23, r19
    1a0a:	a9 f0       	breq	.+42     	; 0x1a36 <pickup+0x1e0>
    1a0c:	2f 3f       	cpi	r18, 0xFF	; 255
    1a0e:	3f 4f       	sbci	r19, 0xFF	; 255
    1a10:	91 f0       	breq	.+36     	; 0x1a36 <pickup+0x1e0>
    1a12:	ee 0f       	add	r30, r30
    1a14:	ff 1f       	adc	r31, r31
    1a16:	ee 0f       	add	r30, r30
    1a18:	ff 1f       	adc	r31, r31
    1a1a:	e5 57       	subi	r30, 0x75	; 117
    1a1c:	fd 4f       	sbci	r31, 0xFD	; 253
    1a1e:	22 81       	ldd	r18, Z+2	; 0x02
    1a20:	33 81       	ldd	r19, Z+3	; 0x03
    1a22:	62 17       	cp	r22, r18
    1a24:	73 07       	cpc	r23, r19
    1a26:	39 f0       	breq	.+14     	; 0x1a36 <pickup+0x1e0>
    1a28:	2f 3f       	cpi	r18, 0xFF	; 255
    1a2a:	3f 4f       	sbci	r19, 0xFF	; 255
    1a2c:	21 f0       	breq	.+8      	; 0x1a36 <pickup+0x1e0>
    1a2e:	48 17       	cp	r20, r24
    1a30:	59 07       	cpc	r21, r25
    1a32:	09 f0       	breq	.+2      	; 0x1a36 <pickup+0x1e0>
    1a34:	6e c1       	rjmp	.+732    	; 0x1d12 <pickup+0x4bc>
						pickNode(arm1, 1);
    1a36:	61 e0       	ldi	r22, 0x01	; 1
    1a38:	70 e0       	ldi	r23, 0x00	; 0
    1a3a:	ce 01       	movw	r24, r28
    1a3c:	96 de       	rcall	.-724    	; 0x176a <pickNode>
    1a3e:	37 c0       	rjmp	.+110    	; 0x1aae <pickup+0x258>
				}
				else	if (term[ct][0] != color[ct] && term[ct][0] != -1)
    1a40:	48 17       	cp	r20, r24
    1a42:	59 07       	cpc	r21, r25
    1a44:	09 f4       	brne	.+2      	; 0x1a48 <pickup+0x1f2>
    1a46:	65 c1       	rjmp	.+714    	; 0x1d12 <pickup+0x4bc>
    1a48:	4f 3f       	cpi	r20, 0xFF	; 255
    1a4a:	5f 4f       	sbci	r21, 0xFF	; 255
    1a4c:	09 f4       	brne	.+2      	; 0x1a50 <pickup+0x1fa>
    1a4e:	61 c1       	rjmp	.+706    	; 0x1d12 <pickup+0x4bc>
				{
					if (sort[ct % 2] == -1 || ((term[adj][0] == color[adj] || term[adj][0] == -1) || (term[adj][1] == color[adj] || term[adj][1] == -1)))
    1a50:	21 70       	andi	r18, 0x01	; 1
    1a52:	30 78       	andi	r19, 0x80	; 128
    1a54:	33 23       	and	r19, r19
    1a56:	34 f4       	brge	.+12     	; 0x1a64 <pickup+0x20e>
    1a58:	21 50       	subi	r18, 0x01	; 1
    1a5a:	31 09       	sbc	r19, r1
    1a5c:	2e 6f       	ori	r18, 0xFE	; 254
    1a5e:	3f 6f       	ori	r19, 0xFF	; 255
    1a60:	2f 5f       	subi	r18, 0xFF	; 255
    1a62:	3f 4f       	sbci	r19, 0xFF	; 255
    1a64:	d9 01       	movw	r26, r18
    1a66:	aa 0f       	add	r26, r26
    1a68:	bb 1f       	adc	r27, r27
    1a6a:	ad 57       	subi	r26, 0x7D	; 125
    1a6c:	bd 4f       	sbci	r27, 0xFD	; 253
    1a6e:	8d 91       	ld	r24, X+
    1a70:	9c 91       	ld	r25, X
    1a72:	01 96       	adiw	r24, 0x01	; 1
    1a74:	c1 f0       	breq	.+48     	; 0x1aa6 <pickup+0x250>
    1a76:	df 01       	movw	r26, r30
    1a78:	aa 0f       	add	r26, r26
    1a7a:	bb 1f       	adc	r27, r27
    1a7c:	aa 0f       	add	r26, r26
    1a7e:	bb 1f       	adc	r27, r27
    1a80:	a5 57       	subi	r26, 0x75	; 117
    1a82:	bd 4f       	sbci	r27, 0xFD	; 253
    1a84:	8d 91       	ld	r24, X+
    1a86:	9c 91       	ld	r25, X
    1a88:	11 97       	sbiw	r26, 0x01	; 1
    1a8a:	68 17       	cp	r22, r24
    1a8c:	79 07       	cpc	r23, r25
    1a8e:	59 f0       	breq	.+22     	; 0x1aa6 <pickup+0x250>
    1a90:	01 96       	adiw	r24, 0x01	; 1
    1a92:	49 f0       	breq	.+18     	; 0x1aa6 <pickup+0x250>
    1a94:	fd 01       	movw	r30, r26
    1a96:	82 81       	ldd	r24, Z+2	; 0x02
    1a98:	93 81       	ldd	r25, Z+3	; 0x03
    1a9a:	68 17       	cp	r22, r24
    1a9c:	79 07       	cpc	r23, r25
    1a9e:	19 f0       	breq	.+6      	; 0x1aa6 <pickup+0x250>
    1aa0:	01 96       	adiw	r24, 0x01	; 1
    1aa2:	09 f0       	breq	.+2      	; 0x1aa6 <pickup+0x250>
    1aa4:	36 c1       	rjmp	.+620    	; 0x1d12 <pickup+0x4bc>
						pickNode(arm0, 0);
    1aa6:	60 e0       	ldi	r22, 0x00	; 0
    1aa8:	70 e0       	ldi	r23, 0x00	; 0
    1aaa:	c8 01       	movw	r24, r16
    1aac:	5e de       	rcall	.-836    	; 0x176a <pickNode>
				}
				else	if (term[ct][0] != color[ct] && term[ct][0] != -1)
					pickNode(arm0, 0);

			}
			if (armCount == 1)
    1aae:	80 91 02 02 	lds	r24, 0x0202
    1ab2:	90 91 03 02 	lds	r25, 0x0203
    1ab6:	01 97       	sbiw	r24, 0x01	; 1
    1ab8:	09 f0       	breq	.+2      	; 0x1abc <pickup+0x266>
    1aba:	2b c1       	rjmp	.+598    	; 0x1d12 <pickup+0x4bc>
			{
				int a1, a2;
				if (arm[arm0] == -1)
    1abc:	f8 01       	movw	r30, r16
    1abe:	ee 0f       	add	r30, r30
    1ac0:	ff 1f       	adc	r31, r31
    1ac2:	ef 54       	subi	r30, 0x4F	; 79
    1ac4:	fd 4f       	sbci	r31, 0xFD	; 253
    1ac6:	80 81       	ld	r24, Z
    1ac8:	91 81       	ldd	r25, Z+1	; 0x01
    1aca:	01 96       	adiw	r24, 0x01	; 1
    1acc:	09 f4       	brne	.+2      	; 0x1ad0 <pickup+0x27a>
					a1 = arm0;
    1ace:	e8 01       	movw	r28, r16
				else a1 = arm1;
				a2 = (a1 + 1) % 2;
    1ad0:	be 01       	movw	r22, r28
    1ad2:	6f 5f       	subi	r22, 0xFF	; 255
    1ad4:	7f 4f       	sbci	r23, 0xFF	; 255
    1ad6:	61 70       	andi	r22, 0x01	; 1
    1ad8:	70 78       	andi	r23, 0x80	; 128
    1ada:	77 23       	and	r23, r23
    1adc:	34 f4       	brge	.+12     	; 0x1aea <pickup+0x294>
    1ade:	61 50       	subi	r22, 0x01	; 1
    1ae0:	71 09       	sbc	r23, r1
    1ae2:	6e 6f       	ori	r22, 0xFE	; 254
    1ae4:	7f 6f       	ori	r23, 0xFF	; 255
    1ae6:	6f 5f       	subi	r22, 0xFF	; 255
    1ae8:	7f 4f       	sbci	r23, 0xFF	; 255

				if (sort[ct % 2] == -1)
    1aea:	80 91 87 02 	lds	r24, 0x0287
    1aee:	90 91 88 02 	lds	r25, 0x0288
    1af2:	9c 01       	movw	r18, r24
    1af4:	21 70       	andi	r18, 0x01	; 1
    1af6:	30 78       	andi	r19, 0x80	; 128
    1af8:	33 23       	and	r19, r19
    1afa:	34 f4       	brge	.+12     	; 0x1b08 <pickup+0x2b2>
    1afc:	21 50       	subi	r18, 0x01	; 1
    1afe:	31 09       	sbc	r19, r1
    1b00:	2e 6f       	ori	r18, 0xFE	; 254
    1b02:	3f 6f       	ori	r19, 0xFF	; 255
    1b04:	2f 5f       	subi	r18, 0xFF	; 255
    1b06:	3f 4f       	sbci	r19, 0xFF	; 255
    1b08:	f9 01       	movw	r30, r18
    1b0a:	ee 0f       	add	r30, r30
    1b0c:	ff 1f       	adc	r31, r31
    1b0e:	ed 57       	subi	r30, 0x7D	; 125
    1b10:	fd 4f       	sbci	r31, 0xFD	; 253
    1b12:	20 81       	ld	r18, Z
    1b14:	31 81       	ldd	r19, Z+1	; 0x01
    1b16:	2f 3f       	cpi	r18, 0xFF	; 255
    1b18:	af ef       	ldi	r26, 0xFF	; 255
    1b1a:	3a 07       	cpc	r19, r26
    1b1c:	d9 f5       	brne	.+118    	; 0x1b94 <pickup+0x33e>
				{
					if (term[ct][a1] != -1 && term[ct][a1] != color[ct])
    1b1e:	fc 01       	movw	r30, r24
    1b20:	ee 0f       	add	r30, r30
    1b22:	ff 1f       	adc	r31, r31
    1b24:	ec 0f       	add	r30, r28
    1b26:	fd 1f       	adc	r31, r29
    1b28:	ee 0f       	add	r30, r30
    1b2a:	ff 1f       	adc	r31, r31
    1b2c:	e5 57       	subi	r30, 0x75	; 117
    1b2e:	fd 4f       	sbci	r31, 0xFD	; 253
    1b30:	20 81       	ld	r18, Z
    1b32:	31 81       	ldd	r19, Z+1	; 0x01
    1b34:	2f 3f       	cpi	r18, 0xFF	; 255
    1b36:	ef ef       	ldi	r30, 0xFF	; 255
    1b38:	3e 07       	cpc	r19, r30
    1b3a:	71 f0       	breq	.+28     	; 0x1b58 <pickup+0x302>
    1b3c:	fc 01       	movw	r30, r24
    1b3e:	ee 0f       	add	r30, r30
    1b40:	ff 1f       	adc	r31, r31
    1b42:	e3 56       	subi	r30, 0x63	; 99
    1b44:	fd 4f       	sbci	r31, 0xFD	; 253
    1b46:	40 81       	ld	r20, Z
    1b48:	51 81       	ldd	r21, Z+1	; 0x01
    1b4a:	24 17       	cp	r18, r20
    1b4c:	35 07       	cpc	r19, r21
    1b4e:	21 f0       	breq	.+8      	; 0x1b58 <pickup+0x302>
						pickNode(a1, a1);
    1b50:	be 01       	movw	r22, r28
    1b52:	ce 01       	movw	r24, r28
    1b54:	0a de       	rcall	.-1004   	; 0x176a <pickNode>
    1b56:	dd c0       	rjmp	.+442    	; 0x1d12 <pickup+0x4bc>
					else if (term[ct][a2] != -1 && term[ct][a2] != color[ct])
    1b58:	fc 01       	movw	r30, r24
    1b5a:	ee 0f       	add	r30, r30
    1b5c:	ff 1f       	adc	r31, r31
    1b5e:	e6 0f       	add	r30, r22
    1b60:	f7 1f       	adc	r31, r23
    1b62:	ee 0f       	add	r30, r30
    1b64:	ff 1f       	adc	r31, r31
    1b66:	e5 57       	subi	r30, 0x75	; 117
    1b68:	fd 4f       	sbci	r31, 0xFD	; 253
    1b6a:	20 81       	ld	r18, Z
    1b6c:	31 81       	ldd	r19, Z+1	; 0x01
    1b6e:	2f 3f       	cpi	r18, 0xFF	; 255
    1b70:	4f ef       	ldi	r20, 0xFF	; 255
    1b72:	34 07       	cpc	r19, r20
    1b74:	09 f4       	brne	.+2      	; 0x1b78 <pickup+0x322>
    1b76:	cd c0       	rjmp	.+410    	; 0x1d12 <pickup+0x4bc>
    1b78:	fc 01       	movw	r30, r24
    1b7a:	ee 0f       	add	r30, r30
    1b7c:	ff 1f       	adc	r31, r31
    1b7e:	e3 56       	subi	r30, 0x63	; 99
    1b80:	fd 4f       	sbci	r31, 0xFD	; 253
    1b82:	80 81       	ld	r24, Z
    1b84:	91 81       	ldd	r25, Z+1	; 0x01
    1b86:	28 17       	cp	r18, r24
    1b88:	39 07       	cpc	r19, r25
    1b8a:	09 f4       	brne	.+2      	; 0x1b8e <pickup+0x338>
    1b8c:	c2 c0       	rjmp	.+388    	; 0x1d12 <pickup+0x4bc>
						pickNode(a1, a2);
    1b8e:	ce 01       	movw	r24, r28
    1b90:	ec dd       	rcall	.-1064   	; 0x176a <pickNode>
    1b92:	bf c0       	rjmp	.+382    	; 0x1d12 <pickup+0x4bc>
				}
				else
				{
					if (term[ct][0] == color[adj] || term[ct][1] == color[adj])
    1b94:	40 91 ad 02 	lds	r20, 0x02AD
    1b98:	50 91 ae 02 	lds	r21, 0x02AE
    1b9c:	fa 01       	movw	r30, r20
    1b9e:	ee 0f       	add	r30, r30
    1ba0:	ff 1f       	adc	r31, r31
    1ba2:	e3 56       	subi	r30, 0x63	; 99
    1ba4:	fd 4f       	sbci	r31, 0xFD	; 253
    1ba6:	01 90       	ld	r0, Z+
    1ba8:	f0 81       	ld	r31, Z
    1baa:	e0 2d       	mov	r30, r0
    1bac:	dc 01       	movw	r26, r24
    1bae:	aa 0f       	add	r26, r26
    1bb0:	bb 1f       	adc	r27, r27
    1bb2:	aa 0f       	add	r26, r26
    1bb4:	bb 1f       	adc	r27, r27
    1bb6:	a5 57       	subi	r26, 0x75	; 117
    1bb8:	bd 4f       	sbci	r27, 0xFD	; 253
    1bba:	0d 90       	ld	r0, X+
    1bbc:	bc 91       	ld	r27, X
    1bbe:	a0 2d       	mov	r26, r0
    1bc0:	ae 17       	cp	r26, r30
    1bc2:	bf 07       	cpc	r27, r31
    1bc4:	71 f0       	breq	.+28     	; 0x1be2 <pickup+0x38c>
    1bc6:	dc 01       	movw	r26, r24
    1bc8:	aa 0f       	add	r26, r26
    1bca:	bb 1f       	adc	r27, r27
    1bcc:	aa 0f       	add	r26, r26
    1bce:	bb 1f       	adc	r27, r27
    1bd0:	a5 57       	subi	r26, 0x75	; 117
    1bd2:	bd 4f       	sbci	r27, 0xFD	; 253
    1bd4:	12 96       	adiw	r26, 0x02	; 2
    1bd6:	0d 90       	ld	r0, X+
    1bd8:	bc 91       	ld	r27, X
    1bda:	a0 2d       	mov	r26, r0
    1bdc:	ea 17       	cp	r30, r26
    1bde:	fb 07       	cpc	r31, r27
    1be0:	d9 f5       	brne	.+118    	; 0x1c58 <pickup+0x402>
					{
						if ((visited[adj] == 1 && (term[adj][0] == -1 || term[adj][1] == -1)))
    1be2:	da 01       	movw	r26, r20
    1be4:	aa 0f       	add	r26, r26
    1be6:	bb 1f       	adc	r27, r27
    1be8:	ac 59       	subi	r26, 0x9C	; 156
    1bea:	bd 4f       	sbci	r27, 0xFD	; 253
    1bec:	2d 91       	ld	r18, X+
    1bee:	3c 91       	ld	r19, X
    1bf0:	21 30       	cpi	r18, 0x01	; 1
    1bf2:	31 05       	cpc	r19, r1
    1bf4:	09 f0       	breq	.+2      	; 0x1bf8 <pickup+0x3a2>
    1bf6:	8d c0       	rjmp	.+282    	; 0x1d12 <pickup+0x4bc>
    1bf8:	da 01       	movw	r26, r20
    1bfa:	aa 0f       	add	r26, r26
    1bfc:	bb 1f       	adc	r27, r27
    1bfe:	aa 0f       	add	r26, r26
    1c00:	bb 1f       	adc	r27, r27
    1c02:	a5 57       	subi	r26, 0x75	; 117
    1c04:	bd 4f       	sbci	r27, 0xFD	; 253
    1c06:	2d 91       	ld	r18, X+
    1c08:	3c 91       	ld	r19, X
    1c0a:	2f 3f       	cpi	r18, 0xFF	; 255
    1c0c:	3f 4f       	sbci	r19, 0xFF	; 255
    1c0e:	79 f0       	breq	.+30     	; 0x1c2e <pickup+0x3d8>
    1c10:	da 01       	movw	r26, r20
    1c12:	aa 0f       	add	r26, r26
    1c14:	bb 1f       	adc	r27, r27
    1c16:	aa 0f       	add	r26, r26
    1c18:	bb 1f       	adc	r27, r27
    1c1a:	a5 57       	subi	r26, 0x75	; 117
    1c1c:	bd 4f       	sbci	r27, 0xFD	; 253
    1c1e:	12 96       	adiw	r26, 0x02	; 2
    1c20:	2d 91       	ld	r18, X+
    1c22:	3c 91       	ld	r19, X
    1c24:	13 97       	sbiw	r26, 0x03	; 3
    1c26:	2f 3f       	cpi	r18, 0xFF	; 255
    1c28:	3f 4f       	sbci	r19, 0xFF	; 255
    1c2a:	09 f0       	breq	.+2      	; 0x1c2e <pickup+0x3d8>
    1c2c:	72 c0       	rjmp	.+228    	; 0x1d12 <pickup+0x4bc>
							if (term[ct][a1] == color[adj])
    1c2e:	88 0f       	add	r24, r24
    1c30:	99 1f       	adc	r25, r25
    1c32:	8c 0f       	add	r24, r28
    1c34:	9d 1f       	adc	r25, r29
    1c36:	dc 01       	movw	r26, r24
    1c38:	aa 0f       	add	r26, r26
    1c3a:	bb 1f       	adc	r27, r27
    1c3c:	a5 57       	subi	r26, 0x75	; 117
    1c3e:	bd 4f       	sbci	r27, 0xFD	; 253
    1c40:	8d 91       	ld	r24, X+
    1c42:	9c 91       	ld	r25, X
    1c44:	e8 17       	cp	r30, r24
    1c46:	f9 07       	cpc	r31, r25
    1c48:	21 f4       	brne	.+8      	; 0x1c52 <pickup+0x3fc>
								pickNode(a1, a1);
    1c4a:	be 01       	movw	r22, r28
    1c4c:	ce 01       	movw	r24, r28
    1c4e:	8d dd       	rcall	.-1254   	; 0x176a <pickNode>
    1c50:	60 c0       	rjmp	.+192    	; 0x1d12 <pickup+0x4bc>
							else pickNode(a1, a2);
    1c52:	ce 01       	movw	r24, r28
    1c54:	8a dd       	rcall	.-1260   	; 0x176a <pickNode>
    1c56:	5d c0       	rjmp	.+186    	; 0x1d12 <pickup+0x4bc>
					}
					else {
						if (sort[ct % 2] != color[ct] && sort[ct % 2] != color[adj])
    1c58:	dc 01       	movw	r26, r24
    1c5a:	aa 0f       	add	r26, r26
    1c5c:	bb 1f       	adc	r27, r27
    1c5e:	a3 56       	subi	r26, 0x63	; 99
    1c60:	bd 4f       	sbci	r27, 0xFD	; 253
    1c62:	0d 90       	ld	r0, X+
    1c64:	bc 91       	ld	r27, X
    1c66:	a0 2d       	mov	r26, r0
    1c68:	2a 17       	cp	r18, r26
    1c6a:	3b 07       	cpc	r19, r27
    1c6c:	09 f4       	brne	.+2      	; 0x1c70 <pickup+0x41a>
    1c6e:	51 c0       	rjmp	.+162    	; 0x1d12 <pickup+0x4bc>
    1c70:	2e 17       	cp	r18, r30
    1c72:	3f 07       	cpc	r19, r31
    1c74:	09 f4       	brne	.+2      	; 0x1c78 <pickup+0x422>
    1c76:	4d c0       	rjmp	.+154    	; 0x1d12 <pickup+0x4bc>
							if ((visited[adj] == 1 && ((term[adj][0] != color[ct]) && (term[adj][1] != color[ct]))))
    1c78:	fa 01       	movw	r30, r20
    1c7a:	ee 0f       	add	r30, r30
    1c7c:	ff 1f       	adc	r31, r31
    1c7e:	ec 59       	subi	r30, 0x9C	; 156
    1c80:	fd 4f       	sbci	r31, 0xFD	; 253
    1c82:	20 81       	ld	r18, Z
    1c84:	31 81       	ldd	r19, Z+1	; 0x01
    1c86:	21 30       	cpi	r18, 0x01	; 1
    1c88:	31 05       	cpc	r19, r1
    1c8a:	09 f0       	breq	.+2      	; 0x1c8e <pickup+0x438>
    1c8c:	42 c0       	rjmp	.+132    	; 0x1d12 <pickup+0x4bc>
    1c8e:	fa 01       	movw	r30, r20
    1c90:	ee 0f       	add	r30, r30
    1c92:	ff 1f       	adc	r31, r31
    1c94:	ee 0f       	add	r30, r30
    1c96:	ff 1f       	adc	r31, r31
    1c98:	e5 57       	subi	r30, 0x75	; 117
    1c9a:	fd 4f       	sbci	r31, 0xFD	; 253
    1c9c:	20 81       	ld	r18, Z
    1c9e:	31 81       	ldd	r19, Z+1	; 0x01
    1ca0:	a2 17       	cp	r26, r18
    1ca2:	b3 07       	cpc	r27, r19
    1ca4:	b1 f1       	breq	.+108    	; 0x1d12 <pickup+0x4bc>
    1ca6:	fa 01       	movw	r30, r20
    1ca8:	ee 0f       	add	r30, r30
    1caa:	ff 1f       	adc	r31, r31
    1cac:	ee 0f       	add	r30, r30
    1cae:	ff 1f       	adc	r31, r31
    1cb0:	e5 57       	subi	r30, 0x75	; 117
    1cb2:	fd 4f       	sbci	r31, 0xFD	; 253
    1cb4:	22 81       	ldd	r18, Z+2	; 0x02
    1cb6:	33 81       	ldd	r19, Z+3	; 0x03
    1cb8:	a2 17       	cp	r26, r18
    1cba:	b3 07       	cpc	r27, r19
    1cbc:	51 f1       	breq	.+84     	; 0x1d12 <pickup+0x4bc>
								if (term[ct][a1] != -1 && term[ct][a1] != color[ct])
    1cbe:	fc 01       	movw	r30, r24
    1cc0:	ee 0f       	add	r30, r30
    1cc2:	ff 1f       	adc	r31, r31
    1cc4:	ec 0f       	add	r30, r28
    1cc6:	fd 1f       	adc	r31, r29
    1cc8:	ee 0f       	add	r30, r30
    1cca:	ff 1f       	adc	r31, r31
    1ccc:	e5 57       	subi	r30, 0x75	; 117
    1cce:	fd 4f       	sbci	r31, 0xFD	; 253
    1cd0:	20 81       	ld	r18, Z
    1cd2:	31 81       	ldd	r19, Z+1	; 0x01
    1cd4:	2f 3f       	cpi	r18, 0xFF	; 255
    1cd6:	ef ef       	ldi	r30, 0xFF	; 255
    1cd8:	3e 07       	cpc	r19, r30
    1cda:	39 f0       	breq	.+14     	; 0x1cea <pickup+0x494>
    1cdc:	a2 17       	cp	r26, r18
    1cde:	b3 07       	cpc	r27, r19
    1ce0:	21 f0       	breq	.+8      	; 0x1cea <pickup+0x494>
									pickNode(a1, a1);
    1ce2:	be 01       	movw	r22, r28
    1ce4:	ce 01       	movw	r24, r28
    1ce6:	41 dd       	rcall	.-1406   	; 0x176a <pickNode>
    1ce8:	14 c0       	rjmp	.+40     	; 0x1d12 <pickup+0x4bc>
								else	if (term[ct][a2] != -1 && term[ct][a2] != color[ct])
    1cea:	88 0f       	add	r24, r24
    1cec:	99 1f       	adc	r25, r25
    1cee:	86 0f       	add	r24, r22
    1cf0:	97 1f       	adc	r25, r23
    1cf2:	fc 01       	movw	r30, r24
    1cf4:	ee 0f       	add	r30, r30
    1cf6:	ff 1f       	adc	r31, r31
    1cf8:	e5 57       	subi	r30, 0x75	; 117
    1cfa:	fd 4f       	sbci	r31, 0xFD	; 253
    1cfc:	80 81       	ld	r24, Z
    1cfe:	91 81       	ldd	r25, Z+1	; 0x01
    1d00:	8f 3f       	cpi	r24, 0xFF	; 255
    1d02:	2f ef       	ldi	r18, 0xFF	; 255
    1d04:	92 07       	cpc	r25, r18
    1d06:	29 f0       	breq	.+10     	; 0x1d12 <pickup+0x4bc>
    1d08:	a8 17       	cp	r26, r24
    1d0a:	b9 07       	cpc	r27, r25
    1d0c:	11 f0       	breq	.+4      	; 0x1d12 <pickup+0x4bc>
									pickNode(a1, a2);
    1d0e:	ce 01       	movw	r24, r28
    1d10:	2c dd       	rcall	.-1448   	; 0x176a <pickNode>
					}
				}
			}
		}
}
    1d12:	df 91       	pop	r29
    1d14:	cf 91       	pop	r28
    1d16:	1f 91       	pop	r17
    1d18:	0f 91       	pop	r16
    1d1a:	ff 90       	pop	r15
    1d1c:	ef 90       	pop	r14
    1d1e:	08 95       	ret

00001d20 <drop>:

void drop(int side)
{
    1d20:	cf 93       	push	r28
    1d22:	df 93       	push	r29
    1d24:	ec 01       	movw	r28, r24
	elevate(0, side);//lower
    1d26:	68 2f       	mov	r22, r24
    1d28:	80 e0       	ldi	r24, 0x00	; 0
    1d2a:	0e 94 46 06 	call	0xc8c	; 0xc8c <elevate>
	open(side);
    1d2e:	8c 2f       	mov	r24, r28
    1d30:	0e 94 53 06 	call	0xca6	; 0xca6 <open>
	elevate(45, side);//mid
    1d34:	6c 2f       	mov	r22, r28
    1d36:	8d e2       	ldi	r24, 0x2D	; 45
    1d38:	0e 94 46 06 	call	0xc8c	; 0xc8c <elevate>
	close(side);
    1d3c:	8c 2f       	mov	r24, r28
    1d3e:	0e 94 63 06 	call	0xcc6	; 0xcc6 <close>
	armCount++;
    1d42:	80 91 02 02 	lds	r24, 0x0202
    1d46:	90 91 03 02 	lds	r25, 0x0203
    1d4a:	01 96       	adiw	r24, 0x01	; 1
    1d4c:	90 93 03 02 	sts	0x0203, r25
    1d50:	80 93 02 02 	sts	0x0202, r24
	if(side==0)
    1d54:	cd 2b       	or	r28, r29
    1d56:	29 f4       	brne	.+10     	; 0x1d62 <drop+0x42>
	lcd("dropRight");
    1d58:	86 e3       	ldi	r24, 0x36	; 54
    1d5a:	92 e0       	ldi	r25, 0x02	; 2
    1d5c:	0e 94 7f 06 	call	0xcfe	; 0xcfe <lcd>
    1d60:	04 c0       	rjmp	.+8      	; 0x1d6a <drop+0x4a>
	else
	lcd("dropLeft");
    1d62:	80 e4       	ldi	r24, 0x40	; 64
    1d64:	92 e0       	ldi	r25, 0x02	; 2
    1d66:	0e 94 7f 06 	call	0xcfe	; 0xcfe <lcd>
}
    1d6a:	df 91       	pop	r29
    1d6c:	cf 91       	pop	r28
    1d6e:	08 95       	ret

00001d70 <nodeDrop>:
void nodeDrop(int armNo, int side)
{
    1d70:	0f 93       	push	r16
    1d72:	1f 93       	push	r17
    1d74:	cf 93       	push	r28
    1d76:	df 93       	push	r29
    1d78:	ec 01       	movw	r28, r24
	term[ct][side] = arm[armNo];
    1d7a:	e0 91 87 02 	lds	r30, 0x0287
    1d7e:	f0 91 88 02 	lds	r31, 0x0288
    1d82:	ee 0f       	add	r30, r30
    1d84:	ff 1f       	adc	r31, r31
    1d86:	e6 0f       	add	r30, r22
    1d88:	f7 1f       	adc	r31, r23
    1d8a:	ee 0f       	add	r30, r30
    1d8c:	ff 1f       	adc	r31, r31
    1d8e:	e5 57       	subi	r30, 0x75	; 117
    1d90:	fd 4f       	sbci	r31, 0xFD	; 253
    1d92:	8c 01       	movw	r16, r24
    1d94:	00 0f       	add	r16, r16
    1d96:	11 1f       	adc	r17, r17
    1d98:	0f 54       	subi	r16, 0x4F	; 79
    1d9a:	1d 4f       	sbci	r17, 0xFD	; 253
    1d9c:	d8 01       	movw	r26, r16
    1d9e:	8d 91       	ld	r24, X+
    1da0:	9c 91       	ld	r25, X
    1da2:	91 83       	std	Z+1, r25	; 0x01
    1da4:	80 83       	st	Z, r24
	position(armNo, side);
    1da6:	ce 01       	movw	r24, r28
    1da8:	f8 db       	rcall	.-2064   	; 0x159a <position>
	drop(armNo);
    1daa:	ce 01       	movw	r24, r28
    1dac:	b9 df       	rcall	.-142    	; 0x1d20 <drop>
	arm[armNo] = -1;
    1dae:	8f ef       	ldi	r24, 0xFF	; 255
    1db0:	9f ef       	ldi	r25, 0xFF	; 255
    1db2:	f8 01       	movw	r30, r16
    1db4:	91 83       	std	Z+1, r25	; 0x01
    1db6:	80 83       	st	Z, r24
	//printf("Arm %d dropped %d on term[%d][%d]\n", armNo, term[ct][side], ct, side);
	sorted++;
    1db8:	80 91 56 02 	lds	r24, 0x0256
    1dbc:	90 91 57 02 	lds	r25, 0x0257
    1dc0:	01 96       	adiw	r24, 0x01	; 1
    1dc2:	90 93 57 02 	sts	0x0257, r25
    1dc6:	80 93 56 02 	sts	0x0256, r24
}
    1dca:	df 91       	pop	r29
    1dcc:	cf 91       	pop	r28
    1dce:	1f 91       	pop	r17
    1dd0:	0f 91       	pop	r16
    1dd2:	08 95       	ret

00001dd4 <sortDrop>:
void sortDrop(int armNo, int sortNo)
{
    1dd4:	cf 93       	push	r28
    1dd6:	df 93       	push	r29
    1dd8:	ec 01       	movw	r28, r24
	sort[sortNo] = arm[armNo];
    1dda:	fb 01       	movw	r30, r22
    1ddc:	ee 0f       	add	r30, r30
    1dde:	ff 1f       	adc	r31, r31
    1de0:	ed 57       	subi	r30, 0x7D	; 125
    1de2:	fd 4f       	sbci	r31, 0xFD	; 253
    1de4:	dc 01       	movw	r26, r24
    1de6:	aa 0f       	add	r26, r26
    1de8:	bb 1f       	adc	r27, r27
    1dea:	af 54       	subi	r26, 0x4F	; 79
    1dec:	bd 4f       	sbci	r27, 0xFD	; 253
    1dee:	8d 91       	ld	r24, X+
    1df0:	9c 91       	ld	r25, X
    1df2:	91 83       	std	Z+1, r25	; 0x01
    1df4:	80 83       	st	Z, r24
	if (((armNo == sortNo) && dir == 0) || ((armNo != sortNo) && dir == 2))
    1df6:	c6 17       	cp	r28, r22
    1df8:	d7 07       	cpc	r29, r23
    1dfa:	39 f4       	brne	.+14     	; 0x1e0a <sortDrop+0x36>
    1dfc:	80 91 4e 02 	lds	r24, 0x024E
    1e00:	90 91 4f 02 	lds	r25, 0x024F
    1e04:	89 2b       	or	r24, r25
    1e06:	49 f4       	brne	.+18     	; 0x1e1a <sortDrop+0x46>
    1e08:	06 c0       	rjmp	.+12     	; 0x1e16 <sortDrop+0x42>
    1e0a:	80 91 4e 02 	lds	r24, 0x024E
    1e0e:	90 91 4f 02 	lds	r25, 0x024F
    1e12:	02 97       	sbiw	r24, 0x02	; 2
    1e14:	11 f4       	brne	.+4      	; 0x1e1a <sortDrop+0x46>
		turn();
    1e16:	31 d8       	rcall	.-3998   	; 0xe7a <turn>
    1e18:	0e c0       	rjmp	.+28     	; 0x1e36 <sortDrop+0x62>
	else
	{
		if (dir == 1 || dir == 3)
    1e1a:	80 91 4e 02 	lds	r24, 0x024E
    1e1e:	90 91 4f 02 	lds	r25, 0x024F
    1e22:	8d 7f       	andi	r24, 0xFD	; 253
    1e24:	01 97       	sbiw	r24, 0x01	; 1
    1e26:	39 f4       	brne	.+14     	; 0x1e36 <sortDrop+0x62>
			if (armNo == 0)
    1e28:	20 97       	sbiw	r28, 0x00	; 0
    1e2a:	19 f4       	brne	.+6      	; 0x1e32 <sortDrop+0x5e>
				turnLeft();
    1e2c:	0e 94 ef 06 	call	0xdde	; 0xdde <turnLeft>
    1e30:	02 c0       	rjmp	.+4      	; 0x1e36 <sortDrop+0x62>
			else turnRight();
    1e32:	0e 94 a1 06 	call	0xd42	; 0xd42 <turnRight>
	}
	drop(armNo);
    1e36:	ce 01       	movw	r24, r28
    1e38:	73 df       	rcall	.-282    	; 0x1d20 <drop>
	arm[armNo] = -1;
    1e3a:	cc 0f       	add	r28, r28
    1e3c:	dd 1f       	adc	r29, r29
    1e3e:	cf 54       	subi	r28, 0x4F	; 79
    1e40:	dd 4f       	sbci	r29, 0xFD	; 253
    1e42:	8f ef       	ldi	r24, 0xFF	; 255
    1e44:	9f ef       	ldi	r25, 0xFF	; 255
    1e46:	99 83       	std	Y+1, r25	; 0x01
    1e48:	88 83       	st	Y, r24
	//printf("Arm %d dropped %d on sort[%d]\n", armNo, sort[sortNo], sortNo);
}
    1e4a:	df 91       	pop	r29
    1e4c:	cf 91       	pop	r28
    1e4e:	08 95       	ret

00001e50 <dropPickup>:

void dropPickup(int a1)
{
    1e50:	cf 93       	push	r28
    1e52:	df 93       	push	r29
	int a2 = (a1 + 1) % 2;
    1e54:	9c 01       	movw	r18, r24
    1e56:	2f 5f       	subi	r18, 0xFF	; 255
    1e58:	3f 4f       	sbci	r19, 0xFF	; 255
    1e5a:	21 70       	andi	r18, 0x01	; 1
    1e5c:	30 78       	andi	r19, 0x80	; 128
    1e5e:	33 23       	and	r19, r19
    1e60:	34 f4       	brge	.+12     	; 0x1e6e <dropPickup+0x1e>
    1e62:	21 50       	subi	r18, 0x01	; 1
    1e64:	31 09       	sbc	r19, r1
    1e66:	2e 6f       	ori	r18, 0xFE	; 254
    1e68:	3f 6f       	ori	r19, 0xFF	; 255
    1e6a:	2f 5f       	subi	r18, 0xFF	; 255
    1e6c:	3f 4f       	sbci	r19, 0xFF	; 255
    1e6e:	d2 2f       	mov	r29, r18
    1e70:	c3 2f       	mov	r28, r19
	if ((term[ct][a2] == color[ct] || term[ct][a2] != color[adj]) && (term[ct][a1] != color[ct] && term[ct][a1] != -1))
    1e72:	e0 91 87 02 	lds	r30, 0x0287
    1e76:	f0 91 88 02 	lds	r31, 0x0288
    1e7a:	af 01       	movw	r20, r30
    1e7c:	44 0f       	add	r20, r20
    1e7e:	55 1f       	adc	r21, r21
    1e80:	24 0f       	add	r18, r20
    1e82:	35 1f       	adc	r19, r21
    1e84:	d9 01       	movw	r26, r18
    1e86:	aa 0f       	add	r26, r26
    1e88:	bb 1f       	adc	r27, r27
    1e8a:	a5 57       	subi	r26, 0x75	; 117
    1e8c:	bd 4f       	sbci	r27, 0xFD	; 253
    1e8e:	2d 91       	ld	r18, X+
    1e90:	3c 91       	ld	r19, X
    1e92:	da 01       	movw	r26, r20
    1e94:	a3 56       	subi	r26, 0x63	; 99
    1e96:	bd 4f       	sbci	r27, 0xFD	; 253
    1e98:	4d 91       	ld	r20, X+
    1e9a:	5c 91       	ld	r21, X
    1e9c:	24 17       	cp	r18, r20
    1e9e:	35 07       	cpc	r19, r21
    1ea0:	69 f0       	breq	.+26     	; 0x1ebc <dropPickup+0x6c>
    1ea2:	a0 91 ad 02 	lds	r26, 0x02AD
    1ea6:	b0 91 ae 02 	lds	r27, 0x02AE
    1eaa:	aa 0f       	add	r26, r26
    1eac:	bb 1f       	adc	r27, r27
    1eae:	a3 56       	subi	r26, 0x63	; 99
    1eb0:	bd 4f       	sbci	r27, 0xFD	; 253
    1eb2:	6d 91       	ld	r22, X+
    1eb4:	7c 91       	ld	r23, X
    1eb6:	26 17       	cp	r18, r22
    1eb8:	37 07       	cpc	r19, r23
    1eba:	a9 f0       	breq	.+42     	; 0x1ee6 <dropPickup+0x96>
    1ebc:	ee 0f       	add	r30, r30
    1ebe:	ff 1f       	adc	r31, r31
    1ec0:	e8 0f       	add	r30, r24
    1ec2:	f9 1f       	adc	r31, r25
    1ec4:	ee 0f       	add	r30, r30
    1ec6:	ff 1f       	adc	r31, r31
    1ec8:	e5 57       	subi	r30, 0x75	; 117
    1eca:	fd 4f       	sbci	r31, 0xFD	; 253
    1ecc:	01 90       	ld	r0, Z+
    1ece:	f0 81       	ld	r31, Z
    1ed0:	e0 2d       	mov	r30, r0
    1ed2:	4e 17       	cp	r20, r30
    1ed4:	5f 07       	cpc	r21, r31
    1ed6:	39 f0       	breq	.+14     	; 0x1ee6 <dropPickup+0x96>
    1ed8:	31 96       	adiw	r30, 0x01	; 1
    1eda:	29 f0       	breq	.+10     	; 0x1ee6 <dropPickup+0x96>
		pickNode(a2, a1);
    1edc:	bc 01       	movw	r22, r24
    1ede:	8d 2f       	mov	r24, r29
    1ee0:	9c 2f       	mov	r25, r28
    1ee2:	43 dc       	rcall	.-1914   	; 0x176a <pickNode>
    1ee4:	0b c0       	rjmp	.+22     	; 0x1efc <dropPickup+0xac>
	else		if (term[ct][a2] != color[ct] && term[ct][a2] != -1)
    1ee6:	24 17       	cp	r18, r20
    1ee8:	35 07       	cpc	r19, r21
    1eea:	41 f0       	breq	.+16     	; 0x1efc <dropPickup+0xac>
    1eec:	2f 3f       	cpi	r18, 0xFF	; 255
    1eee:	3f 4f       	sbci	r19, 0xFF	; 255
    1ef0:	29 f0       	breq	.+10     	; 0x1efc <dropPickup+0xac>
		pickNode(a2, a2);
    1ef2:	6d 2f       	mov	r22, r29
    1ef4:	7c 2f       	mov	r23, r28
    1ef6:	8d 2f       	mov	r24, r29
    1ef8:	9c 2f       	mov	r25, r28
    1efa:	37 dc       	rcall	.-1938   	; 0x176a <pickNode>
}
    1efc:	df 91       	pop	r29
    1efe:	cf 91       	pop	r28
    1f00:	08 95       	ret

00001f02 <canDrop>:

void canDrop()
{
    1f02:	0f 93       	push	r16
    1f04:	1f 93       	push	r17
    1f06:	cf 93       	push	r28
    1f08:	df 93       	push	r29
	int arm0 = 0, arm1 = 1;
	if (((ct == 0 || ct == 1) && dir == 2) || ((ct == 2 || ct == 3) && dir == 0))
    1f0a:	20 91 87 02 	lds	r18, 0x0287
    1f0e:	30 91 88 02 	lds	r19, 0x0288
    1f12:	22 30       	cpi	r18, 0x02	; 2
    1f14:	31 05       	cpc	r19, r1
    1f16:	30 f4       	brcc	.+12     	; 0x1f24 <canDrop+0x22>
    1f18:	80 91 4e 02 	lds	r24, 0x024E
    1f1c:	90 91 4f 02 	lds	r25, 0x024F
    1f20:	02 97       	sbiw	r24, 0x02	; 2
    1f22:	79 f0       	breq	.+30     	; 0x1f42 <canDrop+0x40>
    1f24:	c9 01       	movw	r24, r18
    1f26:	02 97       	sbiw	r24, 0x02	; 2
    1f28:	02 97       	sbiw	r24, 0x02	; 2
    1f2a:	80 f4       	brcc	.+32     	; 0x1f4c <canDrop+0x4a>
    1f2c:	80 91 4e 02 	lds	r24, 0x024E
    1f30:	90 91 4f 02 	lds	r25, 0x024F
    1f34:	89 2b       	or	r24, r25
    1f36:	79 f0       	breq	.+30     	; 0x1f56 <canDrop+0x54>
		pickNode(a2, a2);
}

void canDrop()
{
	int arm0 = 0, arm1 = 1;
    1f38:	01 e0       	ldi	r16, 0x01	; 1
    1f3a:	10 e0       	ldi	r17, 0x00	; 0
    1f3c:	c0 e0       	ldi	r28, 0x00	; 0
    1f3e:	d0 e0       	ldi	r29, 0x00	; 0
    1f40:	0e c0       	rjmp	.+28     	; 0x1f5e <canDrop+0x5c>
	if (((ct == 0 || ct == 1) && dir == 2) || ((ct == 2 || ct == 3) && dir == 0))
	{
		arm0 = 1;
		arm1 = 0;
    1f42:	00 e0       	ldi	r16, 0x00	; 0
    1f44:	10 e0       	ldi	r17, 0x00	; 0
void canDrop()
{
	int arm0 = 0, arm1 = 1;
	if (((ct == 0 || ct == 1) && dir == 2) || ((ct == 2 || ct == 3) && dir == 0))
	{
		arm0 = 1;
    1f46:	c1 e0       	ldi	r28, 0x01	; 1
    1f48:	d0 e0       	ldi	r29, 0x00	; 0
    1f4a:	09 c0       	rjmp	.+18     	; 0x1f5e <canDrop+0x5c>
		pickNode(a2, a2);
}

void canDrop()
{
	int arm0 = 0, arm1 = 1;
    1f4c:	01 e0       	ldi	r16, 0x01	; 1
    1f4e:	10 e0       	ldi	r17, 0x00	; 0
    1f50:	c0 e0       	ldi	r28, 0x00	; 0
    1f52:	d0 e0       	ldi	r29, 0x00	; 0
    1f54:	04 c0       	rjmp	.+8      	; 0x1f5e <canDrop+0x5c>
	if (((ct == 0 || ct == 1) && dir == 2) || ((ct == 2 || ct == 3) && dir == 0))
	{
		arm0 = 1;
		arm1 = 0;
    1f56:	00 e0       	ldi	r16, 0x00	; 0
    1f58:	10 e0       	ldi	r17, 0x00	; 0
void canDrop()
{
	int arm0 = 0, arm1 = 1;
	if (((ct == 0 || ct == 1) && dir == 2) || ((ct == 2 || ct == 3) && dir == 0))
	{
		arm0 = 1;
    1f5a:	c1 e0       	ldi	r28, 0x01	; 1
    1f5c:	d0 e0       	ldi	r29, 0x00	; 0
		arm1 = 0;
	}

	if (armCount == 2 || (arm[0] != color[ct] && arm[1] != color[ct]))
    1f5e:	40 91 02 02 	lds	r20, 0x0202
    1f62:	50 91 03 02 	lds	r21, 0x0203
    1f66:	42 30       	cpi	r20, 0x02	; 2
    1f68:	51 05       	cpc	r21, r1
    1f6a:	09 f4       	brne	.+2      	; 0x1f6e <canDrop+0x6c>
    1f6c:	3b c1       	rjmp	.+630    	; 0x21e4 <canDrop+0x2e2>
    1f6e:	f9 01       	movw	r30, r18
    1f70:	ee 0f       	add	r30, r30
    1f72:	ff 1f       	adc	r31, r31
    1f74:	e3 56       	subi	r30, 0x63	; 99
    1f76:	fd 4f       	sbci	r31, 0xFD	; 253
    1f78:	40 81       	ld	r20, Z
    1f7a:	51 81       	ldd	r21, Z+1	; 0x01
    1f7c:	80 91 b1 02 	lds	r24, 0x02B1
    1f80:	90 91 b2 02 	lds	r25, 0x02B2
    1f84:	84 17       	cp	r24, r20
    1f86:	95 07       	cpc	r25, r21
    1f88:	41 f0       	breq	.+16     	; 0x1f9a <canDrop+0x98>
    1f8a:	80 91 b3 02 	lds	r24, 0x02B3
    1f8e:	90 91 b4 02 	lds	r25, 0x02B4
    1f92:	48 17       	cp	r20, r24
    1f94:	59 07       	cpc	r21, r25
    1f96:	09 f0       	breq	.+2      	; 0x1f9a <canDrop+0x98>
    1f98:	25 c1       	rjmp	.+586    	; 0x21e4 <canDrop+0x2e2>
		return;
	else
	{
		if (visited[ct] == 0)
    1f9a:	f9 01       	movw	r30, r18
    1f9c:	ee 0f       	add	r30, r30
    1f9e:	ff 1f       	adc	r31, r31
    1fa0:	ec 59       	subi	r30, 0x9C	; 156
    1fa2:	fd 4f       	sbci	r31, 0xFD	; 253
    1fa4:	80 81       	ld	r24, Z
    1fa6:	91 81       	ldd	r25, Z+1	; 0x01
    1fa8:	89 2b       	or	r24, r25
    1faa:	09 f4       	brne	.+2      	; 0x1fae <canDrop+0xac>
			terminalCheck1();
    1fac:	3d d9       	rcall	.-3462   	; 0x1228 <terminalCheck1>
		if (armCount == 0)
    1fae:	80 91 02 02 	lds	r24, 0x0202
    1fb2:	90 91 03 02 	lds	r25, 0x0203
    1fb6:	89 2b       	or	r24, r25
    1fb8:	09 f0       	breq	.+2      	; 0x1fbc <canDrop+0xba>
    1fba:	48 c0       	rjmp	.+144    	; 0x204c <canDrop+0x14a>
		{
			if (arm[arm0] == color[ct])
    1fbc:	20 91 87 02 	lds	r18, 0x0287
    1fc0:	30 91 88 02 	lds	r19, 0x0288
    1fc4:	f9 01       	movw	r30, r18
    1fc6:	ee 0f       	add	r30, r30
    1fc8:	ff 1f       	adc	r31, r31
    1fca:	e3 56       	subi	r30, 0x63	; 99
    1fcc:	fd 4f       	sbci	r31, 0xFD	; 253
    1fce:	80 81       	ld	r24, Z
    1fd0:	91 81       	ldd	r25, Z+1	; 0x01
    1fd2:	fe 01       	movw	r30, r28
    1fd4:	ee 0f       	add	r30, r30
    1fd6:	ff 1f       	adc	r31, r31
    1fd8:	ef 54       	subi	r30, 0x4F	; 79
    1fda:	fd 4f       	sbci	r31, 0xFD	; 253
    1fdc:	40 81       	ld	r20, Z
    1fde:	51 81       	ldd	r21, Z+1	; 0x01
    1fe0:	48 17       	cp	r20, r24
    1fe2:	59 07       	cpc	r21, r25
    1fe4:	a9 f4       	brne	.+42     	; 0x2010 <canDrop+0x10e>
				if (term[ct][0] == -1)
    1fe6:	f9 01       	movw	r30, r18
    1fe8:	ee 0f       	add	r30, r30
    1fea:	ff 1f       	adc	r31, r31
    1fec:	ee 0f       	add	r30, r30
    1fee:	ff 1f       	adc	r31, r31
    1ff0:	e5 57       	subi	r30, 0x75	; 117
    1ff2:	fd 4f       	sbci	r31, 0xFD	; 253
    1ff4:	80 81       	ld	r24, Z
    1ff6:	91 81       	ldd	r25, Z+1	; 0x01
    1ff8:	01 96       	adiw	r24, 0x01	; 1
    1ffa:	29 f4       	brne	.+10     	; 0x2006 <canDrop+0x104>
					nodeDrop(arm0, 0);
    1ffc:	60 e0       	ldi	r22, 0x00	; 0
    1ffe:	70 e0       	ldi	r23, 0x00	; 0
    2000:	ce 01       	movw	r24, r28
    2002:	b6 de       	rcall	.-660    	; 0x1d70 <nodeDrop>
    2004:	23 c0       	rjmp	.+70     	; 0x204c <canDrop+0x14a>
				else nodeDrop(arm0, 1);
    2006:	61 e0       	ldi	r22, 0x01	; 1
    2008:	70 e0       	ldi	r23, 0x00	; 0
    200a:	ce 01       	movw	r24, r28
    200c:	b1 de       	rcall	.-670    	; 0x1d70 <nodeDrop>
    200e:	1e c0       	rjmp	.+60     	; 0x204c <canDrop+0x14a>
			else if (arm[arm1] == color[ct])
    2010:	f8 01       	movw	r30, r16
    2012:	ee 0f       	add	r30, r30
    2014:	ff 1f       	adc	r31, r31
    2016:	ef 54       	subi	r30, 0x4F	; 79
    2018:	fd 4f       	sbci	r31, 0xFD	; 253
    201a:	40 81       	ld	r20, Z
    201c:	51 81       	ldd	r21, Z+1	; 0x01
    201e:	84 17       	cp	r24, r20
    2020:	95 07       	cpc	r25, r21
    2022:	a1 f4       	brne	.+40     	; 0x204c <canDrop+0x14a>
				if (term[ct][0] != -1)
    2024:	f9 01       	movw	r30, r18
    2026:	ee 0f       	add	r30, r30
    2028:	ff 1f       	adc	r31, r31
    202a:	ee 0f       	add	r30, r30
    202c:	ff 1f       	adc	r31, r31
    202e:	e5 57       	subi	r30, 0x75	; 117
    2030:	fd 4f       	sbci	r31, 0xFD	; 253
    2032:	80 81       	ld	r24, Z
    2034:	91 81       	ldd	r25, Z+1	; 0x01
    2036:	01 96       	adiw	r24, 0x01	; 1
    2038:	29 f0       	breq	.+10     	; 0x2044 <canDrop+0x142>
					nodeDrop(arm1, 1);
    203a:	61 e0       	ldi	r22, 0x01	; 1
    203c:	70 e0       	ldi	r23, 0x00	; 0
    203e:	c8 01       	movw	r24, r16
    2040:	97 de       	rcall	.-722    	; 0x1d70 <nodeDrop>
    2042:	04 c0       	rjmp	.+8      	; 0x204c <canDrop+0x14a>
				else nodeDrop(arm1, 0);
    2044:	60 e0       	ldi	r22, 0x00	; 0
    2046:	70 e0       	ldi	r23, 0x00	; 0
    2048:	c8 01       	movw	r24, r16
    204a:	92 de       	rcall	.-732    	; 0x1d70 <nodeDrop>
		}
		if (arm[0] == color[ct] || arm[1] == color[ct])
    204c:	20 91 87 02 	lds	r18, 0x0287
    2050:	30 91 88 02 	lds	r19, 0x0288
    2054:	f9 01       	movw	r30, r18
    2056:	ee 0f       	add	r30, r30
    2058:	ff 1f       	adc	r31, r31
    205a:	e3 56       	subi	r30, 0x63	; 99
    205c:	fd 4f       	sbci	r31, 0xFD	; 253
    205e:	80 81       	ld	r24, Z
    2060:	91 81       	ldd	r25, Z+1	; 0x01
    2062:	40 91 b1 02 	lds	r20, 0x02B1
    2066:	50 91 b2 02 	lds	r21, 0x02B2
    206a:	48 17       	cp	r20, r24
    206c:	59 07       	cpc	r21, r25
    206e:	41 f0       	breq	.+16     	; 0x2080 <canDrop+0x17e>
    2070:	40 91 b3 02 	lds	r20, 0x02B3
    2074:	50 91 b4 02 	lds	r21, 0x02B4
    2078:	84 17       	cp	r24, r20
    207a:	95 07       	cpc	r25, r21
    207c:	09 f0       	breq	.+2      	; 0x2080 <canDrop+0x17e>
    207e:	b2 c0       	rjmp	.+356    	; 0x21e4 <canDrop+0x2e2>
		{
			if (term[ct][0] != -1 && term[ct][1] != -1)
    2080:	f9 01       	movw	r30, r18
    2082:	ee 0f       	add	r30, r30
    2084:	ff 1f       	adc	r31, r31
    2086:	ee 0f       	add	r30, r30
    2088:	ff 1f       	adc	r31, r31
    208a:	e5 57       	subi	r30, 0x75	; 117
    208c:	fd 4f       	sbci	r31, 0xFD	; 253
    208e:	80 81       	ld	r24, Z
    2090:	91 81       	ldd	r25, Z+1	; 0x01
    2092:	01 96       	adiw	r24, 0x01	; 1
    2094:	09 f4       	brne	.+2      	; 0x2098 <canDrop+0x196>
    2096:	45 c0       	rjmp	.+138    	; 0x2122 <canDrop+0x220>
    2098:	f9 01       	movw	r30, r18
    209a:	ee 0f       	add	r30, r30
    209c:	ff 1f       	adc	r31, r31
    209e:	ee 0f       	add	r30, r30
    20a0:	ff 1f       	adc	r31, r31
    20a2:	e5 57       	subi	r30, 0x75	; 117
    20a4:	fd 4f       	sbci	r31, 0xFD	; 253
    20a6:	82 81       	ldd	r24, Z+2	; 0x02
    20a8:	93 81       	ldd	r25, Z+3	; 0x03
    20aa:	01 96       	adiw	r24, 0x01	; 1
    20ac:	c9 f0       	breq	.+50     	; 0x20e0 <canDrop+0x1de>
				if (visited[ct] == 0)
    20ae:	f9 01       	movw	r30, r18
    20b0:	ee 0f       	add	r30, r30
    20b2:	ff 1f       	adc	r31, r31
    20b4:	ec 59       	subi	r30, 0x9C	; 156
    20b6:	fd 4f       	sbci	r31, 0xFD	; 253
    20b8:	80 81       	ld	r24, Z
    20ba:	91 81       	ldd	r25, Z+1	; 0x01
    20bc:	89 2b       	or	r24, r25
    20be:	81 f4       	brne	.+32     	; 0x20e0 <canDrop+0x1de>
					terminalCheck2();
    20c0:	7c d9       	rcall	.-3336   	; 0x13ba <terminalCheck2>
			if (term[ct][0] != -1 && term[ct][1] != -1)
    20c2:	20 91 87 02 	lds	r18, 0x0287
    20c6:	30 91 88 02 	lds	r19, 0x0288
    20ca:	f9 01       	movw	r30, r18
    20cc:	ee 0f       	add	r30, r30
    20ce:	ff 1f       	adc	r31, r31
    20d0:	ee 0f       	add	r30, r30
    20d2:	ff 1f       	adc	r31, r31
    20d4:	e5 57       	subi	r30, 0x75	; 117
    20d6:	fd 4f       	sbci	r31, 0xFD	; 253
    20d8:	80 81       	ld	r24, Z
    20da:	91 81       	ldd	r25, Z+1	; 0x01
    20dc:	01 96       	adiw	r24, 0x01	; 1
    20de:	09 f1       	breq	.+66     	; 0x2122 <canDrop+0x220>
    20e0:	f9 01       	movw	r30, r18
    20e2:	ee 0f       	add	r30, r30
    20e4:	ff 1f       	adc	r31, r31
    20e6:	ee 0f       	add	r30, r30
    20e8:	ff 1f       	adc	r31, r31
    20ea:	e5 57       	subi	r30, 0x75	; 117
    20ec:	fd 4f       	sbci	r31, 0xFD	; 253
    20ee:	82 81       	ldd	r24, Z+2	; 0x02
    20f0:	93 81       	ldd	r25, Z+3	; 0x03
    20f2:	01 96       	adiw	r24, 0x01	; 1
    20f4:	b1 f0       	breq	.+44     	; 0x2122 <canDrop+0x220>
			{
				if (arm[arm0] == color[ct])
    20f6:	de 01       	movw	r26, r28
    20f8:	aa 0f       	add	r26, r26
    20fa:	bb 1f       	adc	r27, r27
    20fc:	af 54       	subi	r26, 0x4F	; 79
    20fe:	bd 4f       	sbci	r27, 0xFD	; 253
    2100:	f9 01       	movw	r30, r18
    2102:	ee 0f       	add	r30, r30
    2104:	ff 1f       	adc	r31, r31
    2106:	e3 56       	subi	r30, 0x63	; 99
    2108:	fd 4f       	sbci	r31, 0xFD	; 253
    210a:	4d 91       	ld	r20, X+
    210c:	5c 91       	ld	r21, X
    210e:	80 81       	ld	r24, Z
    2110:	91 81       	ldd	r25, Z+1	; 0x01
    2112:	48 17       	cp	r20, r24
    2114:	59 07       	cpc	r21, r25
    2116:	19 f4       	brne	.+6      	; 0x211e <canDrop+0x21c>
					dropPickup(arm0);
    2118:	ce 01       	movw	r24, r28
    211a:	9a de       	rcall	.-716    	; 0x1e50 <dropPickup>
    211c:	02 c0       	rjmp	.+4      	; 0x2122 <canDrop+0x220>
				else dropPickup(arm1);
    211e:	c8 01       	movw	r24, r16
    2120:	97 de       	rcall	.-722    	; 0x1e50 <dropPickup>
			}

			if (arm[arm0] == color[ct] && term[ct][0] == -1)
    2122:	80 91 87 02 	lds	r24, 0x0287
    2126:	90 91 88 02 	lds	r25, 0x0288
    212a:	fc 01       	movw	r30, r24
    212c:	ee 0f       	add	r30, r30
    212e:	ff 1f       	adc	r31, r31
    2130:	e3 56       	subi	r30, 0x63	; 99
    2132:	fd 4f       	sbci	r31, 0xFD	; 253
    2134:	20 81       	ld	r18, Z
    2136:	31 81       	ldd	r19, Z+1	; 0x01
    2138:	fe 01       	movw	r30, r28
    213a:	ee 0f       	add	r30, r30
    213c:	ff 1f       	adc	r31, r31
    213e:	ef 54       	subi	r30, 0x4F	; 79
    2140:	fd 4f       	sbci	r31, 0xFD	; 253
    2142:	40 81       	ld	r20, Z
    2144:	51 81       	ldd	r21, Z+1	; 0x01
    2146:	42 17       	cp	r20, r18
    2148:	53 07       	cpc	r21, r19
    214a:	11 f5       	brne	.+68     	; 0x2190 <canDrop+0x28e>
    214c:	fc 01       	movw	r30, r24
    214e:	ee 0f       	add	r30, r30
    2150:	ff 1f       	adc	r31, r31
    2152:	ee 0f       	add	r30, r30
    2154:	ff 1f       	adc	r31, r31
    2156:	e5 57       	subi	r30, 0x75	; 117
    2158:	fd 4f       	sbci	r31, 0xFD	; 253
    215a:	40 81       	ld	r20, Z
    215c:	51 81       	ldd	r21, Z+1	; 0x01
    215e:	4f 3f       	cpi	r20, 0xFF	; 255
    2160:	5f 4f       	sbci	r21, 0xFF	; 255
    2162:	29 f4       	brne	.+10     	; 0x216e <canDrop+0x26c>
				nodeDrop(arm0, 0);
    2164:	60 e0       	ldi	r22, 0x00	; 0
    2166:	70 e0       	ldi	r23, 0x00	; 0
    2168:	ce 01       	movw	r24, r28
    216a:	02 de       	rcall	.-1020   	; 0x1d70 <nodeDrop>
    216c:	3b c0       	rjmp	.+118    	; 0x21e4 <canDrop+0x2e2>
			else if (arm[arm0] == color[ct] && term[ct][1] == -1)
    216e:	fc 01       	movw	r30, r24
    2170:	ee 0f       	add	r30, r30
    2172:	ff 1f       	adc	r31, r31
    2174:	ee 0f       	add	r30, r30
    2176:	ff 1f       	adc	r31, r31
    2178:	e5 57       	subi	r30, 0x75	; 117
    217a:	fd 4f       	sbci	r31, 0xFD	; 253
    217c:	42 81       	ldd	r20, Z+2	; 0x02
    217e:	53 81       	ldd	r21, Z+3	; 0x03
    2180:	4f 3f       	cpi	r20, 0xFF	; 255
    2182:	5f 4f       	sbci	r21, 0xFF	; 255
    2184:	29 f4       	brne	.+10     	; 0x2190 <canDrop+0x28e>
				nodeDrop(arm0, 1);
    2186:	61 e0       	ldi	r22, 0x01	; 1
    2188:	70 e0       	ldi	r23, 0x00	; 0
    218a:	ce 01       	movw	r24, r28
    218c:	f1 dd       	rcall	.-1054   	; 0x1d70 <nodeDrop>
    218e:	2a c0       	rjmp	.+84     	; 0x21e4 <canDrop+0x2e2>
			else if (arm[arm1] == color[ct] && term[ct][0] == -1)
    2190:	f8 01       	movw	r30, r16
    2192:	ee 0f       	add	r30, r30
    2194:	ff 1f       	adc	r31, r31
    2196:	ef 54       	subi	r30, 0x4F	; 79
    2198:	fd 4f       	sbci	r31, 0xFD	; 253
    219a:	40 81       	ld	r20, Z
    219c:	51 81       	ldd	r21, Z+1	; 0x01
    219e:	24 17       	cp	r18, r20
    21a0:	35 07       	cpc	r19, r21
    21a2:	01 f5       	brne	.+64     	; 0x21e4 <canDrop+0x2e2>
    21a4:	fc 01       	movw	r30, r24
    21a6:	ee 0f       	add	r30, r30
    21a8:	ff 1f       	adc	r31, r31
    21aa:	ee 0f       	add	r30, r30
    21ac:	ff 1f       	adc	r31, r31
    21ae:	e5 57       	subi	r30, 0x75	; 117
    21b0:	fd 4f       	sbci	r31, 0xFD	; 253
    21b2:	20 81       	ld	r18, Z
    21b4:	31 81       	ldd	r19, Z+1	; 0x01
    21b6:	2f 3f       	cpi	r18, 0xFF	; 255
    21b8:	3f 4f       	sbci	r19, 0xFF	; 255
    21ba:	29 f4       	brne	.+10     	; 0x21c6 <canDrop+0x2c4>
				nodeDrop(arm1, 0);
    21bc:	60 e0       	ldi	r22, 0x00	; 0
    21be:	70 e0       	ldi	r23, 0x00	; 0
    21c0:	c8 01       	movw	r24, r16
    21c2:	d6 dd       	rcall	.-1108   	; 0x1d70 <nodeDrop>
    21c4:	0f c0       	rjmp	.+30     	; 0x21e4 <canDrop+0x2e2>
			else if (arm[arm1] == color[ct] && term[ct][1] == -1)
    21c6:	fc 01       	movw	r30, r24
    21c8:	ee 0f       	add	r30, r30
    21ca:	ff 1f       	adc	r31, r31
    21cc:	ee 0f       	add	r30, r30
    21ce:	ff 1f       	adc	r31, r31
    21d0:	e5 57       	subi	r30, 0x75	; 117
    21d2:	fd 4f       	sbci	r31, 0xFD	; 253
    21d4:	82 81       	ldd	r24, Z+2	; 0x02
    21d6:	93 81       	ldd	r25, Z+3	; 0x03
    21d8:	01 96       	adiw	r24, 0x01	; 1
    21da:	21 f4       	brne	.+8      	; 0x21e4 <canDrop+0x2e2>
				nodeDrop(arm1, 1);
    21dc:	61 e0       	ldi	r22, 0x01	; 1
    21de:	70 e0       	ldi	r23, 0x00	; 0
    21e0:	c8 01       	movw	r24, r16
    21e2:	c6 dd       	rcall	.-1140   	; 0x1d70 <nodeDrop>

		}
	}
}
    21e4:	df 91       	pop	r29
    21e6:	cf 91       	pop	r28
    21e8:	1f 91       	pop	r17
    21ea:	0f 91       	pop	r16
    21ec:	08 95       	ret

000021ee <newSort>:

void newSort()
{
    21ee:	0f 93       	push	r16
    21f0:	1f 93       	push	r17
    21f2:	cf 93       	push	r28
    21f4:	df 93       	push	r29
	int t1, t2, a1=-2, a2=-2;
	if (arm[0] != -1)
    21f6:	20 91 b1 02 	lds	r18, 0x02B1
    21fa:	30 91 b2 02 	lds	r19, 0x02B2
    21fe:	2f 3f       	cpi	r18, 0xFF	; 255
    2200:	1f ef       	ldi	r17, 0xFF	; 255
    2202:	31 07       	cpc	r19, r17
    2204:	41 f0       	breq	.+16     	; 0x2216 <__stack+0x17>
		a1 = indicator[arm[0]];
    2206:	f9 01       	movw	r30, r18
    2208:	ee 0f       	add	r30, r30
    220a:	ff 1f       	adc	r31, r31
    220c:	eb 55       	subi	r30, 0x5B	; 91
    220e:	fd 4f       	sbci	r31, 0xFD	; 253
    2210:	c0 81       	ld	r28, Z
    2212:	d1 81       	ldd	r29, Z+1	; 0x01
    2214:	02 c0       	rjmp	.+4      	; 0x221a <__stack+0x1b>
	}
}

void newSort()
{
	int t1, t2, a1=-2, a2=-2;
    2216:	ce ef       	ldi	r28, 0xFE	; 254
    2218:	df ef       	ldi	r29, 0xFF	; 255
	if (arm[0] != -1)
		a1 = indicator[arm[0]];
	if (arm[1] != -1)
    221a:	e0 91 b3 02 	lds	r30, 0x02B3
    221e:	f0 91 b4 02 	lds	r31, 0x02B4
    2222:	ef 3f       	cpi	r30, 0xFF	; 255
    2224:	4f ef       	ldi	r20, 0xFF	; 255
    2226:	f4 07       	cpc	r31, r20
    2228:	09 f4       	brne	.+2      	; 0x222c <__stack+0x2d>
    222a:	7f c1       	rjmp	.+766    	; 0x252a <__stack+0x32b>
		a2 = indicator[arm[1]];
    222c:	df 01       	movw	r26, r30
    222e:	aa 0f       	add	r26, r26
    2230:	bb 1f       	adc	r27, r27
    2232:	ab 55       	subi	r26, 0x5B	; 91
    2234:	bd 4f       	sbci	r27, 0xFD	; 253
    2236:	4d 91       	ld	r20, X+
    2238:	5c 91       	ld	r21, X

	t1 = (ct + 1) % 2;
    223a:	80 91 87 02 	lds	r24, 0x0287
    223e:	90 91 88 02 	lds	r25, 0x0288
    2242:	01 96       	adiw	r24, 0x01	; 1
    2244:	81 70       	andi	r24, 0x01	; 1
    2246:	90 78       	andi	r25, 0x80	; 128
    2248:	99 23       	and	r25, r25
    224a:	24 f4       	brge	.+8      	; 0x2254 <__stack+0x55>
    224c:	01 97       	sbiw	r24, 0x01	; 1
    224e:	8e 6f       	ori	r24, 0xFE	; 254
    2250:	9f 6f       	ori	r25, 0xFF	; 255
    2252:	01 96       	adiw	r24, 0x01	; 1
    2254:	bc 01       	movw	r22, r24
	t2 = t1 + 2;
    2256:	02 96       	adiw	r24, 0x02	; 2
	if (arm[0] != -1 || arm[1] != -1)
	{
		ct = a1;
    2258:	d0 93 88 02 	sts	0x0288, r29
    225c:	c0 93 87 02 	sts	0x0287, r28
		if(arm[0]==arm[1] && (visited[a1]==0 ||(term[a1][0] != -1 && term[a1][1] != -1)))
    2260:	2e 17       	cp	r18, r30
    2262:	3f 07       	cpc	r19, r31
    2264:	61 f5       	brne	.+88     	; 0x22be <__stack+0xbf>
    2266:	de 01       	movw	r26, r28
    2268:	aa 0f       	add	r26, r26
    226a:	bb 1f       	adc	r27, r27
    226c:	ac 59       	subi	r26, 0x9C	; 156
    226e:	bd 4f       	sbci	r27, 0xFD	; 253
    2270:	0d 90       	ld	r0, X+
    2272:	bc 91       	ld	r27, X
    2274:	a0 2d       	mov	r26, r0
    2276:	ab 2b       	or	r26, r27
    2278:	c9 f0       	breq	.+50     	; 0x22ac <__stack+0xad>
    227a:	de 01       	movw	r26, r28
    227c:	aa 0f       	add	r26, r26
    227e:	bb 1f       	adc	r27, r27
    2280:	aa 0f       	add	r26, r26
    2282:	bb 1f       	adc	r27, r27
    2284:	a5 57       	subi	r26, 0x75	; 117
    2286:	bd 4f       	sbci	r27, 0xFD	; 253
    2288:	0d 90       	ld	r0, X+
    228a:	bc 91       	ld	r27, X
    228c:	a0 2d       	mov	r26, r0
    228e:	11 96       	adiw	r26, 0x01	; 1
    2290:	b1 f0       	breq	.+44     	; 0x22be <__stack+0xbf>
    2292:	de 01       	movw	r26, r28
    2294:	aa 0f       	add	r26, r26
    2296:	bb 1f       	adc	r27, r27
    2298:	aa 0f       	add	r26, r26
    229a:	bb 1f       	adc	r27, r27
    229c:	a5 57       	subi	r26, 0x75	; 117
    229e:	bd 4f       	sbci	r27, 0xFD	; 253
    22a0:	12 96       	adiw	r26, 0x02	; 2
    22a2:	0d 90       	ld	r0, X+
    22a4:	bc 91       	ld	r27, X
    22a6:	a0 2d       	mov	r26, r0
    22a8:	11 96       	adiw	r26, 0x01	; 1
    22aa:	49 f0       	breq	.+18     	; 0x22be <__stack+0xbf>
		{
			if(a1== 0 || a1==3)
    22ac:	20 97       	sbiw	r28, 0x00	; 0
    22ae:	19 f0       	breq	.+6      	; 0x22b6 <__stack+0xb7>
    22b0:	23 97       	sbiw	r28, 0x03	; 3
    22b2:	09 f0       	breq	.+2      	; 0x22b6 <__stack+0xb7>
    22b4:	28 c1       	rjmp	.+592    	; 0x2506 <__stack+0x307>
				sortDrop(1,t1);
    22b6:	81 e0       	ldi	r24, 0x01	; 1
    22b8:	90 e0       	ldi	r25, 0x00	; 0
    22ba:	8c dd       	rcall	.-1256   	; 0x1dd4 <sortDrop>
    22bc:	24 c1       	rjmp	.+584    	; 0x2506 <__stack+0x307>
		}
		else if (arm[0] != -1 && (term[a1][0] == -1 || term[a1][1] == -1))
    22be:	2f 3f       	cpi	r18, 0xFF	; 255
    22c0:	af ef       	ldi	r26, 0xFF	; 255
    22c2:	3a 07       	cpc	r19, r26
    22c4:	c1 f1       	breq	.+112    	; 0x2336 <__stack+0x137>
    22c6:	de 01       	movw	r26, r28
    22c8:	aa 0f       	add	r26, r26
    22ca:	bb 1f       	adc	r27, r27
    22cc:	aa 0f       	add	r26, r26
    22ce:	bb 1f       	adc	r27, r27
    22d0:	a5 57       	subi	r26, 0x75	; 117
    22d2:	bd 4f       	sbci	r27, 0xFD	; 253
    22d4:	0d 90       	ld	r0, X+
    22d6:	bc 91       	ld	r27, X
    22d8:	a0 2d       	mov	r26, r0
    22da:	11 96       	adiw	r26, 0x01	; 1
    22dc:	51 f0       	breq	.+20     	; 0x22f2 <__stack+0xf3>
    22de:	cc 0f       	add	r28, r28
    22e0:	dd 1f       	adc	r29, r29
    22e2:	cc 0f       	add	r28, r28
    22e4:	dd 1f       	adc	r29, r29
    22e6:	c5 57       	subi	r28, 0x75	; 117
    22e8:	dd 4f       	sbci	r29, 0xFD	; 253
    22ea:	aa 81       	ldd	r26, Y+2	; 0x02
    22ec:	bb 81       	ldd	r27, Y+3	; 0x03
    22ee:	11 96       	adiw	r26, 0x01	; 1
    22f0:	11 f5       	brne	.+68     	; 0x2336 <__stack+0x137>
		{
			if (arm[1] == -1)
    22f2:	31 96       	adiw	r30, 0x01	; 1
    22f4:	09 f0       	breq	.+2      	; 0x22f8 <__stack+0xf9>
    22f6:	07 c1       	rjmp	.+526    	; 0x2506 <__stack+0x307>
			{
				if (sort[t1] == color[t1] || sort[t1] == color[t2])
    22f8:	9b 01       	movw	r18, r22
    22fa:	22 0f       	add	r18, r18
    22fc:	33 1f       	adc	r19, r19
    22fe:	f9 01       	movw	r30, r18
    2300:	ed 57       	subi	r30, 0x7D	; 125
    2302:	fd 4f       	sbci	r31, 0xFD	; 253
    2304:	40 81       	ld	r20, Z
    2306:	51 81       	ldd	r21, Z+1	; 0x01
    2308:	f9 01       	movw	r30, r18
    230a:	e3 56       	subi	r30, 0x63	; 99
    230c:	fd 4f       	sbci	r31, 0xFD	; 253
    230e:	20 81       	ld	r18, Z
    2310:	31 81       	ldd	r19, Z+1	; 0x01
    2312:	42 17       	cp	r20, r18
    2314:	53 07       	cpc	r21, r19
    2316:	59 f0       	breq	.+22     	; 0x232e <__stack+0x12f>
    2318:	fc 01       	movw	r30, r24
    231a:	ee 0f       	add	r30, r30
    231c:	ff 1f       	adc	r31, r31
    231e:	e3 56       	subi	r30, 0x63	; 99
    2320:	fd 4f       	sbci	r31, 0xFD	; 253
    2322:	80 81       	ld	r24, Z
    2324:	91 81       	ldd	r25, Z+1	; 0x01
    2326:	48 17       	cp	r20, r24
    2328:	59 07       	cpc	r21, r25
    232a:	09 f0       	breq	.+2      	; 0x232e <__stack+0x12f>
    232c:	ec c0       	rjmp	.+472    	; 0x2506 <__stack+0x307>
					pickSort(1, t1);
    232e:	81 e0       	ldi	r24, 0x01	; 1
    2330:	90 e0       	ldi	r25, 0x00	; 0
    2332:	4f da       	rcall	.-2914   	; 0x17d2 <pickSort>
    2334:	e8 c0       	rjmp	.+464    	; 0x2506 <__stack+0x307>
			}
		}
		else if (arm[1] != -1 && (term[a2][0] == -1 || term[a2][1] == -1))
    2336:	ef 3f       	cpi	r30, 0xFF	; 255
    2338:	af ef       	ldi	r26, 0xFF	; 255
    233a:	fa 07       	cpc	r31, r26
    233c:	09 f4       	brne	.+2      	; 0x2340 <__stack+0x141>
    233e:	51 c0       	rjmp	.+162    	; 0x23e2 <__stack+0x1e3>
    2340:	da 01       	movw	r26, r20
    2342:	aa 0f       	add	r26, r26
    2344:	bb 1f       	adc	r27, r27
    2346:	aa 0f       	add	r26, r26
    2348:	bb 1f       	adc	r27, r27
    234a:	a5 57       	subi	r26, 0x75	; 117
    234c:	bd 4f       	sbci	r27, 0xFD	; 253
    234e:	0d 90       	ld	r0, X+
    2350:	bc 91       	ld	r27, X
    2352:	a0 2d       	mov	r26, r0
    2354:	11 96       	adiw	r26, 0x01	; 1
    2356:	09 f4       	brne	.+2      	; 0x235a <__stack+0x15b>
    2358:	0a c1       	rjmp	.+532    	; 0x256e <__stack+0x36f>
    235a:	da 01       	movw	r26, r20
    235c:	aa 0f       	add	r26, r26
    235e:	bb 1f       	adc	r27, r27
    2360:	aa 0f       	add	r26, r26
    2362:	bb 1f       	adc	r27, r27
    2364:	a5 57       	subi	r26, 0x75	; 117
    2366:	bd 4f       	sbci	r27, 0xFD	; 253
    2368:	12 96       	adiw	r26, 0x02	; 2
    236a:	0d 90       	ld	r0, X+
    236c:	bc 91       	ld	r27, X
    236e:	a0 2d       	mov	r26, r0
    2370:	11 96       	adiw	r26, 0x01	; 1
    2372:	b9 f5       	brne	.+110    	; 0x23e2 <__stack+0x1e3>
    2374:	ea c0       	rjmp	.+468    	; 0x254a <__stack+0x34b>
		{
			ct = a2;
			if (term[a2][0] == -1 || term[a2][1] == -1)
			{
				if (arm[0] == -1)
    2376:	2f 3f       	cpi	r18, 0xFF	; 255
    2378:	3f 4f       	sbci	r19, 0xFF	; 255
    237a:	09 f0       	breq	.+2      	; 0x237e <__stack+0x17f>
    237c:	c4 c0       	rjmp	.+392    	; 0x2506 <__stack+0x307>
				{
					if (sort[t1] == color[t1] && sort[t1] == color[t2])
    237e:	9b 01       	movw	r18, r22
    2380:	22 0f       	add	r18, r18
    2382:	33 1f       	adc	r19, r19
    2384:	f9 01       	movw	r30, r18
    2386:	ed 57       	subi	r30, 0x7D	; 125
    2388:	fd 4f       	sbci	r31, 0xFD	; 253
    238a:	40 81       	ld	r20, Z
    238c:	51 81       	ldd	r21, Z+1	; 0x01
    238e:	f9 01       	movw	r30, r18
    2390:	e3 56       	subi	r30, 0x63	; 99
    2392:	fd 4f       	sbci	r31, 0xFD	; 253
    2394:	20 81       	ld	r18, Z
    2396:	31 81       	ldd	r19, Z+1	; 0x01
    2398:	42 17       	cp	r20, r18
    239a:	53 07       	cpc	r21, r19
    239c:	09 f0       	breq	.+2      	; 0x23a0 <__stack+0x1a1>
    239e:	b3 c0       	rjmp	.+358    	; 0x2506 <__stack+0x307>
    23a0:	fc 01       	movw	r30, r24
    23a2:	ee 0f       	add	r30, r30
    23a4:	ff 1f       	adc	r31, r31
    23a6:	e3 56       	subi	r30, 0x63	; 99
    23a8:	fd 4f       	sbci	r31, 0xFD	; 253
    23aa:	80 81       	ld	r24, Z
    23ac:	91 81       	ldd	r25, Z+1	; 0x01
    23ae:	48 17       	cp	r20, r24
    23b0:	59 07       	cpc	r21, r25
    23b2:	09 f0       	breq	.+2      	; 0x23b6 <__stack+0x1b7>
    23b4:	a8 c0       	rjmp	.+336    	; 0x2506 <__stack+0x307>
						pickSort(1, t1);
    23b6:	81 e0       	ldi	r24, 0x01	; 1
    23b8:	90 e0       	ldi	r25, 0x00	; 0
    23ba:	0b da       	rcall	.-3050   	; 0x17d2 <pickSort>
    23bc:	a4 c0       	rjmp	.+328    	; 0x2506 <__stack+0x307>
				}
			}
			else	if (sort[t1] == -1 && arm[0] != -1)
    23be:	fb 01       	movw	r30, r22
    23c0:	ee 0f       	add	r30, r30
    23c2:	ff 1f       	adc	r31, r31
    23c4:	ed 57       	subi	r30, 0x7D	; 125
    23c6:	fd 4f       	sbci	r31, 0xFD	; 253
    23c8:	80 81       	ld	r24, Z
    23ca:	91 81       	ldd	r25, Z+1	; 0x01
    23cc:	01 96       	adiw	r24, 0x01	; 1
    23ce:	09 f0       	breq	.+2      	; 0x23d2 <__stack+0x1d3>
    23d0:	9a c0       	rjmp	.+308    	; 0x2506 <__stack+0x307>
    23d2:	2f 3f       	cpi	r18, 0xFF	; 255
    23d4:	3f 4f       	sbci	r19, 0xFF	; 255
    23d6:	09 f4       	brne	.+2      	; 0x23da <__stack+0x1db>
    23d8:	96 c0       	rjmp	.+300    	; 0x2506 <__stack+0x307>
				sortDrop(1, t1);
    23da:	81 e0       	ldi	r24, 0x01	; 1
    23dc:	90 e0       	ldi	r25, 0x00	; 0
    23de:	fa dc       	rcall	.-1548   	; 0x1dd4 <sortDrop>
    23e0:	92 c0       	rjmp	.+292    	; 0x2506 <__stack+0x307>
		}
		else	if (arm[0] != -1 && (sort[t1] == -1 && arm[1] != -1))
    23e2:	2f 3f       	cpi	r18, 0xFF	; 255
    23e4:	1f ef       	ldi	r17, 0xFF	; 255
    23e6:	31 07       	cpc	r19, r17
    23e8:	a1 f0       	breq	.+40     	; 0x2412 <__stack+0x213>
    23ea:	db 01       	movw	r26, r22
    23ec:	aa 0f       	add	r26, r26
    23ee:	bb 1f       	adc	r27, r27
    23f0:	ad 57       	subi	r26, 0x7D	; 125
    23f2:	bd 4f       	sbci	r27, 0xFD	; 253
    23f4:	8d 91       	ld	r24, X+
    23f6:	9c 91       	ld	r25, X
    23f8:	01 96       	adiw	r24, 0x01	; 1
    23fa:	31 f4       	brne	.+12     	; 0x2408 <__stack+0x209>
    23fc:	31 96       	adiw	r30, 0x01	; 1
    23fe:	21 f0       	breq	.+8      	; 0x2408 <__stack+0x209>
			sortDrop(1, t1);
    2400:	81 e0       	ldi	r24, 0x01	; 1
    2402:	90 e0       	ldi	r25, 0x00	; 0
    2404:	e7 dc       	rcall	.-1586   	; 0x1dd4 <sortDrop>
    2406:	7f c0       	rjmp	.+254    	; 0x2506 <__stack+0x307>
		else if (arm[0] != -1)
			ct = arm[0];
    2408:	30 93 88 02 	sts	0x0288, r19
    240c:	20 93 87 02 	sts	0x0287, r18
    2410:	7a c0       	rjmp	.+244    	; 0x2506 <__stack+0x307>
		else ct = arm[1];
    2412:	f0 93 88 02 	sts	0x0288, r31
    2416:	e0 93 87 02 	sts	0x0287, r30
    241a:	75 c0       	rjmp	.+234    	; 0x2506 <__stack+0x307>
	}
	else
	{
		if ((sort[t1] == color[t1] || sort[t1] == color[t2]) && sort[t1] != -1)
    241c:	a8 01       	movw	r20, r16
    241e:	44 0f       	add	r20, r20
    2420:	55 1f       	adc	r21, r21
    2422:	fa 01       	movw	r30, r20
    2424:	ed 57       	subi	r30, 0x7D	; 125
    2426:	fd 4f       	sbci	r31, 0xFD	; 253
    2428:	20 81       	ld	r18, Z
    242a:	31 81       	ldd	r19, Z+1	; 0x01
    242c:	fa 01       	movw	r30, r20
    242e:	e3 56       	subi	r30, 0x63	; 99
    2430:	fd 4f       	sbci	r31, 0xFD	; 253
    2432:	40 81       	ld	r20, Z
    2434:	51 81       	ldd	r21, Z+1	; 0x01
    2436:	24 17       	cp	r18, r20
    2438:	35 07       	cpc	r19, r21
    243a:	51 f0       	breq	.+20     	; 0x2450 <__stack+0x251>
    243c:	fc 01       	movw	r30, r24
    243e:	ee 0f       	add	r30, r30
    2440:	ff 1f       	adc	r31, r31
    2442:	e3 56       	subi	r30, 0x63	; 99
    2444:	fd 4f       	sbci	r31, 0xFD	; 253
    2446:	60 81       	ld	r22, Z
    2448:	71 81       	ldd	r23, Z+1	; 0x01
    244a:	26 17       	cp	r18, r22
    244c:	37 07       	cpc	r19, r23
    244e:	81 f4       	brne	.+32     	; 0x2470 <__stack+0x271>
    2450:	2f 3f       	cpi	r18, 0xFF	; 255
    2452:	af ef       	ldi	r26, 0xFF	; 255
    2454:	3a 07       	cpc	r19, r26
    2456:	31 f1       	breq	.+76     	; 0x24a4 <__stack+0x2a5>
			ct = indicator[sort[t1]];
    2458:	f9 01       	movw	r30, r18
    245a:	ee 0f       	add	r30, r30
    245c:	ff 1f       	adc	r31, r31
    245e:	eb 55       	subi	r30, 0x5B	; 91
    2460:	fd 4f       	sbci	r31, 0xFD	; 253
    2462:	80 81       	ld	r24, Z
    2464:	91 81       	ldd	r25, Z+1	; 0x01
    2466:	90 93 88 02 	sts	0x0288, r25
    246a:	80 93 87 02 	sts	0x0287, r24
    246e:	4b c0       	rjmp	.+150    	; 0x2506 <__stack+0x307>
		else if (sort[t1] != -1)
    2470:	2f 3f       	cpi	r18, 0xFF	; 255
    2472:	3f 4f       	sbci	r19, 0xFF	; 255
    2474:	b9 f0       	breq	.+46     	; 0x24a4 <__stack+0x2a5>
		{
			pickSort(0, t1);
    2476:	b8 01       	movw	r22, r16
    2478:	80 e0       	ldi	r24, 0x00	; 0
    247a:	90 e0       	ldi	r25, 0x00	; 0
    247c:	aa d9       	rcall	.-3244   	; 0x17d2 <pickSort>
			ct = (t1 + 1) % 2 + 4;
    247e:	0f 5f       	subi	r16, 0xFF	; 255
    2480:	1f 4f       	sbci	r17, 0xFF	; 255
    2482:	01 70       	andi	r16, 0x01	; 1
    2484:	10 78       	andi	r17, 0x80	; 128
    2486:	11 23       	and	r17, r17
    2488:	34 f4       	brge	.+12     	; 0x2496 <__stack+0x297>
    248a:	01 50       	subi	r16, 0x01	; 1
    248c:	11 09       	sbc	r17, r1
    248e:	0e 6f       	ori	r16, 0xFE	; 254
    2490:	1f 6f       	ori	r17, 0xFF	; 255
    2492:	0f 5f       	subi	r16, 0xFF	; 255
    2494:	1f 4f       	sbci	r17, 0xFF	; 255
    2496:	0c 5f       	subi	r16, 0xFC	; 252
    2498:	1f 4f       	sbci	r17, 0xFF	; 255
    249a:	10 93 88 02 	sts	0x0288, r17
    249e:	00 93 87 02 	sts	0x0287, r16
    24a2:	31 c0       	rjmp	.+98     	; 0x2506 <__stack+0x307>
		}
		else if (visited[t1] == 1 && (term[t1][0] == color[t1] || term[t1][0] == -1) && (term[t1][1] == color[t1] || term[t1][1] == -1))
    24a4:	f8 01       	movw	r30, r16
    24a6:	ee 0f       	add	r30, r30
    24a8:	ff 1f       	adc	r31, r31
    24aa:	ec 59       	subi	r30, 0x9C	; 156
    24ac:	fd 4f       	sbci	r31, 0xFD	; 253
    24ae:	20 81       	ld	r18, Z
    24b0:	31 81       	ldd	r19, Z+1	; 0x01
    24b2:	21 30       	cpi	r18, 0x01	; 1
    24b4:	31 05       	cpc	r19, r1
    24b6:	19 f5       	brne	.+70     	; 0x24fe <__stack+0x2ff>
    24b8:	f8 01       	movw	r30, r16
    24ba:	ee 0f       	add	r30, r30
    24bc:	ff 1f       	adc	r31, r31
    24be:	ee 0f       	add	r30, r30
    24c0:	ff 1f       	adc	r31, r31
    24c2:	e5 57       	subi	r30, 0x75	; 117
    24c4:	fd 4f       	sbci	r31, 0xFD	; 253
    24c6:	20 81       	ld	r18, Z
    24c8:	31 81       	ldd	r19, Z+1	; 0x01
    24ca:	42 17       	cp	r20, r18
    24cc:	53 07       	cpc	r21, r19
    24ce:	19 f0       	breq	.+6      	; 0x24d6 <__stack+0x2d7>
    24d0:	2f 3f       	cpi	r18, 0xFF	; 255
    24d2:	3f 4f       	sbci	r19, 0xFF	; 255
    24d4:	a1 f4       	brne	.+40     	; 0x24fe <__stack+0x2ff>
    24d6:	f8 01       	movw	r30, r16
    24d8:	ee 0f       	add	r30, r30
    24da:	ff 1f       	adc	r31, r31
    24dc:	ee 0f       	add	r30, r30
    24de:	ff 1f       	adc	r31, r31
    24e0:	e5 57       	subi	r30, 0x75	; 117
    24e2:	fd 4f       	sbci	r31, 0xFD	; 253
    24e4:	22 81       	ldd	r18, Z+2	; 0x02
    24e6:	33 81       	ldd	r19, Z+3	; 0x03
    24e8:	42 17       	cp	r20, r18
    24ea:	53 07       	cpc	r21, r19
    24ec:	19 f0       	breq	.+6      	; 0x24f4 <__stack+0x2f5>
    24ee:	2f 3f       	cpi	r18, 0xFF	; 255
    24f0:	3f 4f       	sbci	r19, 0xFF	; 255
    24f2:	29 f4       	brne	.+10     	; 0x24fe <__stack+0x2ff>
			ct = t2;
    24f4:	90 93 88 02 	sts	0x0288, r25
    24f8:	80 93 87 02 	sts	0x0287, r24
    24fc:	04 c0       	rjmp	.+8      	; 0x2506 <__stack+0x307>
		else ct = t1;
    24fe:	10 93 88 02 	sts	0x0288, r17
    2502:	00 93 87 02 	sts	0x0287, r16
	arm[0] = arm[1] = -1;
}

int adjCount(ct)
{
	return (ct + 2) % 4;
    2506:	80 91 87 02 	lds	r24, 0x0287
    250a:	90 91 88 02 	lds	r25, 0x0288
    250e:	02 96       	adiw	r24, 0x02	; 2
    2510:	83 70       	andi	r24, 0x03	; 3
    2512:	90 78       	andi	r25, 0x80	; 128
    2514:	99 23       	and	r25, r25
    2516:	24 f4       	brge	.+8      	; 0x2520 <__stack+0x321>
    2518:	01 97       	sbiw	r24, 0x01	; 1
    251a:	8c 6f       	ori	r24, 0xFC	; 252
    251c:	9f 6f       	ori	r25, 0xFF	; 255
    251e:	01 96       	adiw	r24, 0x01	; 1
		else if (visited[t1] == 1 && (term[t1][0] == color[t1] || term[t1][0] == -1) && (term[t1][1] == color[t1] || term[t1][1] == -1))
			ct = t2;
		else ct = t1;

	}
	adj = adjCount(ct);
    2520:	90 93 ae 02 	sts	0x02AE, r25
    2524:	80 93 ad 02 	sts	0x02AD, r24
    2528:	2e c0       	rjmp	.+92     	; 0x2586 <__stack+0x387>
	if (arm[0] != -1)
		a1 = indicator[arm[0]];
	if (arm[1] != -1)
		a2 = indicator[arm[1]];

	t1 = (ct + 1) % 2;
    252a:	80 91 87 02 	lds	r24, 0x0287
    252e:	90 91 88 02 	lds	r25, 0x0288
    2532:	01 96       	adiw	r24, 0x01	; 1
    2534:	62 e0       	ldi	r22, 0x02	; 2
    2536:	70 e0       	ldi	r23, 0x00	; 0
    2538:	b1 d4       	rcall	.+2402   	; 0x2e9c <__divmodhi4>
    253a:	8c 01       	movw	r16, r24
    253c:	bc 01       	movw	r22, r24
	t2 = t1 + 2;
    253e:	02 96       	adiw	r24, 0x02	; 2
	if (arm[0] != -1 || arm[1] != -1)
    2540:	2f 3f       	cpi	r18, 0xFF	; 255
    2542:	af ef       	ldi	r26, 0xFF	; 255
    2544:	3a 07       	cpc	r19, r26
    2546:	c1 f4       	brne	.+48     	; 0x2578 <__stack+0x379>
    2548:	69 cf       	rjmp	.-302    	; 0x241c <__stack+0x21d>
					pickSort(1, t1);
			}
		}
		else if (arm[1] != -1 && (term[a2][0] == -1 || term[a2][1] == -1))
		{
			ct = a2;
    254a:	50 93 88 02 	sts	0x0288, r21
    254e:	40 93 87 02 	sts	0x0287, r20
			if (term[a2][0] == -1 || term[a2][1] == -1)
    2552:	fa 01       	movw	r30, r20
    2554:	ee 0f       	add	r30, r30
    2556:	ff 1f       	adc	r31, r31
    2558:	ee 0f       	add	r30, r30
    255a:	ff 1f       	adc	r31, r31
    255c:	e5 57       	subi	r30, 0x75	; 117
    255e:	fd 4f       	sbci	r31, 0xFD	; 253
    2560:	42 81       	ldd	r20, Z+2	; 0x02
    2562:	53 81       	ldd	r21, Z+3	; 0x03
    2564:	4f 3f       	cpi	r20, 0xFF	; 255
    2566:	5f 4f       	sbci	r21, 0xFF	; 255
    2568:	09 f0       	breq	.+2      	; 0x256c <__stack+0x36d>
    256a:	29 cf       	rjmp	.-430    	; 0x23be <__stack+0x1bf>
    256c:	04 cf       	rjmp	.-504    	; 0x2376 <__stack+0x177>
					pickSort(1, t1);
			}
		}
		else if (arm[1] != -1 && (term[a2][0] == -1 || term[a2][1] == -1))
		{
			ct = a2;
    256e:	50 93 88 02 	sts	0x0288, r21
    2572:	40 93 87 02 	sts	0x0287, r20
    2576:	ff ce       	rjmp	.-514    	; 0x2376 <__stack+0x177>

	t1 = (ct + 1) % 2;
	t2 = t1 + 2;
	if (arm[0] != -1 || arm[1] != -1)
	{
		ct = a1;
    2578:	d0 93 88 02 	sts	0x0288, r29
    257c:	c0 93 87 02 	sts	0x0287, r28
	}
}

void newSort()
{
	int t1, t2, a1=-2, a2=-2;
    2580:	4e ef       	ldi	r20, 0xFE	; 254
    2582:	5f ef       	ldi	r21, 0xFF	; 255
    2584:	9c ce       	rjmp	.-712    	; 0x22be <__stack+0xbf>
			ct = t2;
		else ct = t1;

	}
	adj = adjCount(ct);
}
    2586:	df 91       	pop	r29
    2588:	cf 91       	pop	r28
    258a:	1f 91       	pop	r17
    258c:	0f 91       	pop	r16
    258e:	08 95       	ret

00002590 <sortCheck>:
void sortCheck()
{
    2590:	8f 92       	push	r8
    2592:	9f 92       	push	r9
    2594:	af 92       	push	r10
    2596:	bf 92       	push	r11
    2598:	cf 92       	push	r12
    259a:	df 92       	push	r13
    259c:	ef 92       	push	r14
    259e:	ff 92       	push	r15
    25a0:	0f 93       	push	r16
    25a2:	1f 93       	push	r17
    25a4:	cf 93       	push	r28
    25a6:	df 93       	push	r29
	int a1, a2;
	int arm0 = 0, arm1 = 1;
	if (((ct == 0 || ct == 1) && dir == 2) || ((ct == 2 || ct == 3) && dir == 0))
    25a8:	40 91 87 02 	lds	r20, 0x0287
    25ac:	50 91 88 02 	lds	r21, 0x0288
    25b0:	42 30       	cpi	r20, 0x02	; 2
    25b2:	51 05       	cpc	r21, r1
    25b4:	30 f4       	brcc	.+12     	; 0x25c2 <sortCheck+0x32>
    25b6:	80 91 4e 02 	lds	r24, 0x024E
    25ba:	90 91 4f 02 	lds	r25, 0x024F
    25be:	02 97       	sbiw	r24, 0x02	; 2
    25c0:	79 f0       	breq	.+30     	; 0x25e0 <sortCheck+0x50>
    25c2:	ca 01       	movw	r24, r20
    25c4:	02 97       	sbiw	r24, 0x02	; 2
    25c6:	02 97       	sbiw	r24, 0x02	; 2
    25c8:	80 f4       	brcc	.+32     	; 0x25ea <sortCheck+0x5a>
    25ca:	80 91 4e 02 	lds	r24, 0x024E
    25ce:	90 91 4f 02 	lds	r25, 0x024F
    25d2:	89 2b       	or	r24, r25
    25d4:	79 f0       	breq	.+30     	; 0x25f4 <sortCheck+0x64>
	adj = adjCount(ct);
}
void sortCheck()
{
	int a1, a2;
	int arm0 = 0, arm1 = 1;
    25d6:	01 e0       	ldi	r16, 0x01	; 1
    25d8:	10 e0       	ldi	r17, 0x00	; 0
    25da:	c0 e0       	ldi	r28, 0x00	; 0
    25dc:	d0 e0       	ldi	r29, 0x00	; 0
    25de:	0e c0       	rjmp	.+28     	; 0x25fc <sortCheck+0x6c>
	if (((ct == 0 || ct == 1) && dir == 2) || ((ct == 2 || ct == 3) && dir == 0))
	{
		arm0 = 1;
		arm1 = 0;
    25e0:	00 e0       	ldi	r16, 0x00	; 0
    25e2:	10 e0       	ldi	r17, 0x00	; 0
{
	int a1, a2;
	int arm0 = 0, arm1 = 1;
	if (((ct == 0 || ct == 1) && dir == 2) || ((ct == 2 || ct == 3) && dir == 0))
	{
		arm0 = 1;
    25e4:	c1 e0       	ldi	r28, 0x01	; 1
    25e6:	d0 e0       	ldi	r29, 0x00	; 0
    25e8:	09 c0       	rjmp	.+18     	; 0x25fc <sortCheck+0x6c>
	adj = adjCount(ct);
}
void sortCheck()
{
	int a1, a2;
	int arm0 = 0, arm1 = 1;
    25ea:	01 e0       	ldi	r16, 0x01	; 1
    25ec:	10 e0       	ldi	r17, 0x00	; 0
    25ee:	c0 e0       	ldi	r28, 0x00	; 0
    25f0:	d0 e0       	ldi	r29, 0x00	; 0
    25f2:	04 c0       	rjmp	.+8      	; 0x25fc <sortCheck+0x6c>
	if (((ct == 0 || ct == 1) && dir == 2) || ((ct == 2 || ct == 3) && dir == 0))
	{
		arm0 = 1;
		arm1 = 0;
    25f4:	00 e0       	ldi	r16, 0x00	; 0
    25f6:	10 e0       	ldi	r17, 0x00	; 0
{
	int a1, a2;
	int arm0 = 0, arm1 = 1;
	if (((ct == 0 || ct == 1) && dir == 2) || ((ct == 2 || ct == 3) && dir == 0))
	{
		arm0 = 1;
    25f8:	c1 e0       	ldi	r28, 0x01	; 1
    25fa:	d0 e0       	ldi	r29, 0x00	; 0
		arm1 = 0;
	}
	if ((sort[ct % 2] == color[ct] || sort[ct % 2] == color[adj]))
    25fc:	9a 01       	movw	r18, r20
    25fe:	21 70       	andi	r18, 0x01	; 1
    2600:	30 78       	andi	r19, 0x80	; 128
    2602:	33 23       	and	r19, r19
    2604:	34 f4       	brge	.+12     	; 0x2612 <sortCheck+0x82>
    2606:	21 50       	subi	r18, 0x01	; 1
    2608:	31 09       	sbc	r19, r1
    260a:	2e 6f       	ori	r18, 0xFE	; 254
    260c:	3f 6f       	ori	r19, 0xFF	; 255
    260e:	2f 5f       	subi	r18, 0xFF	; 255
    2610:	3f 4f       	sbci	r19, 0xFF	; 255
    2612:	b2 2e       	mov	r11, r18
    2614:	a3 2e       	mov	r10, r19
    2616:	f9 01       	movw	r30, r18
    2618:	ee 0f       	add	r30, r30
    261a:	ff 1f       	adc	r31, r31
    261c:	ed 57       	subi	r30, 0x7D	; 125
    261e:	fd 4f       	sbci	r31, 0xFD	; 253
    2620:	20 81       	ld	r18, Z
    2622:	31 81       	ldd	r19, Z+1	; 0x01
    2624:	fa 01       	movw	r30, r20
    2626:	ee 0f       	add	r30, r30
    2628:	ff 1f       	adc	r31, r31
    262a:	e3 56       	subi	r30, 0x63	; 99
    262c:	fd 4f       	sbci	r31, 0xFD	; 253
    262e:	80 81       	ld	r24, Z
    2630:	91 81       	ldd	r25, Z+1	; 0x01
    2632:	28 17       	cp	r18, r24
    2634:	39 07       	cpc	r19, r25
    2636:	79 f0       	breq	.+30     	; 0x2656 <sortCheck+0xc6>
    2638:	80 91 ad 02 	lds	r24, 0x02AD
    263c:	90 91 ae 02 	lds	r25, 0x02AE
    2640:	fc 01       	movw	r30, r24
    2642:	ee 0f       	add	r30, r30
    2644:	ff 1f       	adc	r31, r31
    2646:	e3 56       	subi	r30, 0x63	; 99
    2648:	fd 4f       	sbci	r31, 0xFD	; 253
    264a:	40 81       	ld	r20, Z
    264c:	51 81       	ldd	r21, Z+1	; 0x01
    264e:	24 17       	cp	r18, r20
    2650:	35 07       	cpc	r19, r21
    2652:	09 f0       	breq	.+2      	; 0x2656 <sortCheck+0xc6>
    2654:	a6 c0       	rjmp	.+332    	; 0x27a2 <sortCheck+0x212>
	{
		if (armCount>0)
    2656:	80 91 02 02 	lds	r24, 0x0202
    265a:	90 91 03 02 	lds	r25, 0x0203
    265e:	18 16       	cp	r1, r24
    2660:	19 06       	cpc	r1, r25
    2662:	0c f0       	brlt	.+2      	; 0x2666 <sortCheck+0xd6>
    2664:	95 c0       	rjmp	.+298    	; 0x2790 <sortCheck+0x200>
		{
			ct = indicator[sort[ct % 2]];
    2666:	f9 01       	movw	r30, r18
    2668:	ee 0f       	add	r30, r30
    266a:	ff 1f       	adc	r31, r31
    266c:	eb 55       	subi	r30, 0x5B	; 91
    266e:	fd 4f       	sbci	r31, 0xFD	; 253
    2670:	60 81       	ld	r22, Z
    2672:	71 81       	ldd	r23, Z+1	; 0x01
    2674:	70 93 88 02 	sts	0x0288, r23
    2678:	60 93 87 02 	sts	0x0287, r22
			if (arm[arm0] == -1)
    267c:	fe 01       	movw	r30, r28
    267e:	ee 0f       	add	r30, r30
    2680:	ff 1f       	adc	r31, r31
    2682:	ef 54       	subi	r30, 0x4F	; 79
    2684:	fd 4f       	sbci	r31, 0xFD	; 253
    2686:	80 81       	ld	r24, Z
    2688:	91 81       	ldd	r25, Z+1	; 0x01
    268a:	01 96       	adiw	r24, 0x01	; 1
    268c:	69 f4       	brne	.+26     	; 0x26a8 <sortCheck+0x118>
				pickSort(arm0, ct % 2);
    268e:	61 70       	andi	r22, 0x01	; 1
    2690:	70 78       	andi	r23, 0x80	; 128
    2692:	77 23       	and	r23, r23
    2694:	34 f4       	brge	.+12     	; 0x26a2 <sortCheck+0x112>
    2696:	61 50       	subi	r22, 0x01	; 1
    2698:	71 09       	sbc	r23, r1
    269a:	6e 6f       	ori	r22, 0xFE	; 254
    269c:	7f 6f       	ori	r23, 0xFF	; 255
    269e:	6f 5f       	subi	r22, 0xFF	; 255
    26a0:	7f 4f       	sbci	r23, 0xFF	; 255
    26a2:	ce 01       	movw	r24, r28
    26a4:	96 d8       	rcall	.-3796   	; 0x17d2 <pickSort>
    26a6:	15 c0       	rjmp	.+42     	; 0x26d2 <sortCheck+0x142>
			else if (arm[arm1] == -1)
    26a8:	f8 01       	movw	r30, r16
    26aa:	ee 0f       	add	r30, r30
    26ac:	ff 1f       	adc	r31, r31
    26ae:	ef 54       	subi	r30, 0x4F	; 79
    26b0:	fd 4f       	sbci	r31, 0xFD	; 253
    26b2:	80 81       	ld	r24, Z
    26b4:	91 81       	ldd	r25, Z+1	; 0x01
    26b6:	01 96       	adiw	r24, 0x01	; 1
    26b8:	61 f4       	brne	.+24     	; 0x26d2 <sortCheck+0x142>
				pickSort(arm1, ct % 2);
    26ba:	61 70       	andi	r22, 0x01	; 1
    26bc:	70 78       	andi	r23, 0x80	; 128
    26be:	77 23       	and	r23, r23
    26c0:	34 f4       	brge	.+12     	; 0x26ce <sortCheck+0x13e>
    26c2:	61 50       	subi	r22, 0x01	; 1
    26c4:	71 09       	sbc	r23, r1
    26c6:	6e 6f       	ori	r22, 0xFE	; 254
    26c8:	7f 6f       	ori	r23, 0xFF	; 255
    26ca:	6f 5f       	subi	r22, 0xFF	; 255
    26cc:	7f 4f       	sbci	r23, 0xFF	; 255
    26ce:	c8 01       	movw	r24, r16
    26d0:	80 d8       	rcall	.-3840   	; 0x17d2 <pickSort>
			if (armCount != 1 && term[ct][0] != -1 && term[ct][1] != -1 && sort[ct % 2] == -1)
    26d2:	80 91 02 02 	lds	r24, 0x0202
    26d6:	90 91 03 02 	lds	r25, 0x0203
    26da:	01 97       	sbiw	r24, 0x01	; 1
    26dc:	09 f4       	brne	.+2      	; 0x26e0 <sortCheck+0x150>
    26de:	6d c1       	rjmp	.+730    	; 0x29ba <sortCheck+0x42a>
    26e0:	80 91 87 02 	lds	r24, 0x0287
    26e4:	90 91 88 02 	lds	r25, 0x0288
    26e8:	fc 01       	movw	r30, r24
    26ea:	ee 0f       	add	r30, r30
    26ec:	ff 1f       	adc	r31, r31
    26ee:	ee 0f       	add	r30, r30
    26f0:	ff 1f       	adc	r31, r31
    26f2:	e5 57       	subi	r30, 0x75	; 117
    26f4:	fd 4f       	sbci	r31, 0xFD	; 253
    26f6:	20 81       	ld	r18, Z
    26f8:	31 81       	ldd	r19, Z+1	; 0x01
    26fa:	2f 3f       	cpi	r18, 0xFF	; 255
    26fc:	3f 4f       	sbci	r19, 0xFF	; 255
    26fe:	09 f4       	brne	.+2      	; 0x2702 <sortCheck+0x172>
    2700:	5c c1       	rjmp	.+696    	; 0x29ba <sortCheck+0x42a>
    2702:	fc 01       	movw	r30, r24
    2704:	ee 0f       	add	r30, r30
    2706:	ff 1f       	adc	r31, r31
    2708:	ee 0f       	add	r30, r30
    270a:	ff 1f       	adc	r31, r31
    270c:	e5 57       	subi	r30, 0x75	; 117
    270e:	fd 4f       	sbci	r31, 0xFD	; 253
    2710:	22 81       	ldd	r18, Z+2	; 0x02
    2712:	33 81       	ldd	r19, Z+3	; 0x03
    2714:	2f 3f       	cpi	r18, 0xFF	; 255
    2716:	3f 4f       	sbci	r19, 0xFF	; 255
    2718:	09 f4       	brne	.+2      	; 0x271c <sortCheck+0x18c>
    271a:	4f c1       	rjmp	.+670    	; 0x29ba <sortCheck+0x42a>
    271c:	9c 01       	movw	r18, r24
    271e:	21 70       	andi	r18, 0x01	; 1
    2720:	30 78       	andi	r19, 0x80	; 128
    2722:	33 23       	and	r19, r19
    2724:	34 f4       	brge	.+12     	; 0x2732 <sortCheck+0x1a2>
    2726:	21 50       	subi	r18, 0x01	; 1
    2728:	31 09       	sbc	r19, r1
    272a:	2e 6f       	ori	r18, 0xFE	; 254
    272c:	3f 6f       	ori	r19, 0xFF	; 255
    272e:	2f 5f       	subi	r18, 0xFF	; 255
    2730:	3f 4f       	sbci	r19, 0xFF	; 255
    2732:	62 2f       	mov	r22, r18
    2734:	73 2f       	mov	r23, r19
    2736:	f9 01       	movw	r30, r18
    2738:	ee 0f       	add	r30, r30
    273a:	ff 1f       	adc	r31, r31
    273c:	ed 57       	subi	r30, 0x7D	; 125
    273e:	fd 4f       	sbci	r31, 0xFD	; 253
    2740:	20 81       	ld	r18, Z
    2742:	31 81       	ldd	r19, Z+1	; 0x01
    2744:	2f 3f       	cpi	r18, 0xFF	; 255
    2746:	3f 4f       	sbci	r19, 0xFF	; 255
    2748:	09 f0       	breq	.+2      	; 0x274c <sortCheck+0x1bc>
    274a:	37 c1       	rjmp	.+622    	; 0x29ba <sortCheck+0x42a>
			{
				if (arm[arm0] == color[ct])
    274c:	fc 01       	movw	r30, r24
    274e:	ee 0f       	add	r30, r30
    2750:	ff 1f       	adc	r31, r31
    2752:	e3 56       	subi	r30, 0x63	; 99
    2754:	fd 4f       	sbci	r31, 0xFD	; 253
    2756:	80 81       	ld	r24, Z
    2758:	91 81       	ldd	r25, Z+1	; 0x01
    275a:	fe 01       	movw	r30, r28
    275c:	ee 0f       	add	r30, r30
    275e:	ff 1f       	adc	r31, r31
    2760:	ef 54       	subi	r30, 0x4F	; 79
    2762:	fd 4f       	sbci	r31, 0xFD	; 253
    2764:	20 81       	ld	r18, Z
    2766:	31 81       	ldd	r19, Z+1	; 0x01
    2768:	28 17       	cp	r18, r24
    276a:	39 07       	cpc	r19, r25
    276c:	19 f4       	brne	.+6      	; 0x2774 <sortCheck+0x1e4>
					sortDrop(arm1, ct % 2);
    276e:	c8 01       	movw	r24, r16
    2770:	31 db       	rcall	.-2462   	; 0x1dd4 <sortDrop>
    2772:	23 c1       	rjmp	.+582    	; 0x29ba <sortCheck+0x42a>
				else if (arm[arm1] == color[ct])
    2774:	f8 01       	movw	r30, r16
    2776:	ee 0f       	add	r30, r30
    2778:	ff 1f       	adc	r31, r31
    277a:	ef 54       	subi	r30, 0x4F	; 79
    277c:	fd 4f       	sbci	r31, 0xFD	; 253
    277e:	20 81       	ld	r18, Z
    2780:	31 81       	ldd	r19, Z+1	; 0x01
    2782:	82 17       	cp	r24, r18
    2784:	93 07       	cpc	r25, r19
    2786:	09 f0       	breq	.+2      	; 0x278a <sortCheck+0x1fa>
    2788:	18 c1       	rjmp	.+560    	; 0x29ba <sortCheck+0x42a>
					sortDrop(arm0, ct % 2);
    278a:	ce 01       	movw	r24, r28
    278c:	23 db       	rcall	.-2490   	; 0x1dd4 <sortDrop>
    278e:	15 c1       	rjmp	.+554    	; 0x29ba <sortCheck+0x42a>
			}
		}
		else ct = adj;
    2790:	80 91 ad 02 	lds	r24, 0x02AD
    2794:	90 91 ae 02 	lds	r25, 0x02AE
    2798:	90 93 88 02 	sts	0x0288, r25
    279c:	80 93 87 02 	sts	0x0287, r24
    27a0:	0c c1       	rjmp	.+536    	; 0x29ba <sortCheck+0x42a>
	}
	else if (arm[arm0] != color[adj] && arm[arm1] != color[adj])
    27a2:	fe 01       	movw	r30, r28
    27a4:	ee 0f       	add	r30, r30
    27a6:	ff 1f       	adc	r31, r31
    27a8:	ef 54       	subi	r30, 0x4F	; 79
    27aa:	fd 4f       	sbci	r31, 0xFD	; 253
    27ac:	01 90       	ld	r0, Z+
    27ae:	f0 81       	ld	r31, Z
    27b0:	e0 2d       	mov	r30, r0
    27b2:	4e 17       	cp	r20, r30
    27b4:	5f 07       	cpc	r21, r31
    27b6:	09 f4       	brne	.+2      	; 0x27ba <sortCheck+0x22a>
    27b8:	8f c0       	rjmp	.+286    	; 0x28d8 <sortCheck+0x348>
    27ba:	d8 01       	movw	r26, r16
    27bc:	aa 0f       	add	r26, r26
    27be:	bb 1f       	adc	r27, r27
    27c0:	af 54       	subi	r26, 0x4F	; 79
    27c2:	bd 4f       	sbci	r27, 0xFD	; 253
    27c4:	8d 90       	ld	r8, X+
    27c6:	9c 90       	ld	r9, X
    27c8:	48 15       	cp	r20, r8
    27ca:	59 05       	cpc	r21, r9
    27cc:	09 f4       	brne	.+2      	; 0x27d0 <sortCheck+0x240>
    27ce:	84 c0       	rjmp	.+264    	; 0x28d8 <sortCheck+0x348>
	{
		if (armCount == 0 || (armCount == 1 && sort[ct % 2] != -1) || ((armCount == 2 || armCount == 1) && (term[adj][0] == color[adj] || term[adj][0] == -1) && (term[adj][1] == color[adj] || term[adj][1] == -1)))
    27d0:	e0 90 02 02 	lds	r14, 0x0202
    27d4:	f0 90 03 02 	lds	r15, 0x0203
    27d8:	e1 14       	cp	r14, r1
    27da:	f1 04       	cpc	r15, r1
    27dc:	09 f4       	brne	.+2      	; 0x27e0 <sortCheck+0x250>
    27de:	4e c0       	rjmp	.+156    	; 0x287c <sortCheck+0x2ec>
    27e0:	b1 e0       	ldi	r27, 0x01	; 1
    27e2:	eb 16       	cp	r14, r27
    27e4:	f1 04       	cpc	r15, r1
    27e6:	29 f4       	brne	.+10     	; 0x27f2 <sortCheck+0x262>
    27e8:	2f 3f       	cpi	r18, 0xFF	; 255
    27ea:	6f ef       	ldi	r22, 0xFF	; 255
    27ec:	36 07       	cpc	r19, r22
    27ee:	b1 f5       	brne	.+108    	; 0x285c <sortCheck+0x2cc>
    27f0:	09 c0       	rjmp	.+18     	; 0x2804 <sortCheck+0x274>
    27f2:	67 01       	movw	r12, r14
    27f4:	71 e0       	ldi	r23, 0x01	; 1
    27f6:	c7 1a       	sub	r12, r23
    27f8:	d1 08       	sbc	r13, r1
    27fa:	a2 e0       	ldi	r26, 0x02	; 2
    27fc:	ca 16       	cp	r12, r26
    27fe:	d1 04       	cpc	r13, r1
    2800:	08 f0       	brcs	.+2      	; 0x2804 <sortCheck+0x274>
    2802:	65 c0       	rjmp	.+202    	; 0x28ce <sortCheck+0x33e>
    2804:	6c 01       	movw	r12, r24
    2806:	cc 0c       	add	r12, r12
    2808:	dd 1c       	adc	r13, r13
    280a:	cc 0c       	add	r12, r12
    280c:	dd 1c       	adc	r13, r13
    280e:	b6 01       	movw	r22, r12
    2810:	65 57       	subi	r22, 0x75	; 117
    2812:	7d 4f       	sbci	r23, 0xFD	; 253
    2814:	db 01       	movw	r26, r22
    2816:	cd 90       	ld	r12, X+
    2818:	dc 90       	ld	r13, X
    281a:	4c 15       	cp	r20, r12
    281c:	5d 05       	cpc	r21, r13
    281e:	21 f0       	breq	.+8      	; 0x2828 <sortCheck+0x298>
    2820:	cd 20       	and	r12, r13
    2822:	c0 94       	com	r12
    2824:	09 f0       	breq	.+2      	; 0x2828 <sortCheck+0x298>
    2826:	53 c0       	rjmp	.+166    	; 0x28ce <sortCheck+0x33e>
    2828:	6c 01       	movw	r12, r24
    282a:	cc 0c       	add	r12, r12
    282c:	dd 1c       	adc	r13, r13
    282e:	cc 0c       	add	r12, r12
    2830:	dd 1c       	adc	r13, r13
    2832:	b6 01       	movw	r22, r12
    2834:	65 57       	subi	r22, 0x75	; 117
    2836:	7d 4f       	sbci	r23, 0xFD	; 253
    2838:	db 01       	movw	r26, r22
    283a:	12 96       	adiw	r26, 0x02	; 2
    283c:	cd 90       	ld	r12, X+
    283e:	dc 90       	ld	r13, X
    2840:	13 97       	sbiw	r26, 0x03	; 3
    2842:	4c 15       	cp	r20, r12
    2844:	5d 05       	cpc	r21, r13
    2846:	21 f0       	breq	.+8      	; 0x2850 <sortCheck+0x2c0>
    2848:	cd 20       	and	r12, r13
    284a:	c0 94       	com	r12
    284c:	09 f0       	breq	.+2      	; 0x2850 <sortCheck+0x2c0>
    284e:	3f c0       	rjmp	.+126    	; 0x28ce <sortCheck+0x33e>
		{
			if (armCount>0)
    2850:	1e 14       	cp	r1, r14
    2852:	1f 04       	cpc	r1, r15
    2854:	9c f4       	brge	.+38     	; 0x287c <sortCheck+0x2ec>
			{
				if (sort[ct % 2] != -1)
    2856:	2f 3f       	cpi	r18, 0xFF	; 255
    2858:	3f 4f       	sbci	r19, 0xFF	; 255
    285a:	81 f0       	breq	.+32     	; 0x287c <sortCheck+0x2ec>
					if (arm[arm0] == -1)
    285c:	31 96       	adiw	r30, 0x01	; 1
    285e:	31 f4       	brne	.+12     	; 0x286c <sortCheck+0x2dc>
						pickSort(arm0, ct % 2);
    2860:	6b 2d       	mov	r22, r11
    2862:	7a 2d       	mov	r23, r10
    2864:	ce 01       	movw	r24, r28
    2866:	0e 94 e9 0b 	call	0x17d2	; 0x17d2 <pickSort>
    286a:	08 c0       	rjmp	.+16     	; 0x287c <sortCheck+0x2ec>
					else if (arm[arm1] == -1)
    286c:	89 20       	and	r8, r9
    286e:	80 94       	com	r8
    2870:	29 f4       	brne	.+10     	; 0x287c <sortCheck+0x2ec>
						pickSort(arm1, ct % 2);
    2872:	6b 2d       	mov	r22, r11
    2874:	7a 2d       	mov	r23, r10
    2876:	c8 01       	movw	r24, r16
    2878:	0e 94 e9 0b 	call	0x17d2	; 0x17d2 <pickSort>
			}
			traverseToSort(ct % 2 + 4, (ct + 1) % 2 + 4);
    287c:	80 91 87 02 	lds	r24, 0x0287
    2880:	90 91 88 02 	lds	r25, 0x0288
    2884:	bc 01       	movw	r22, r24
    2886:	6f 5f       	subi	r22, 0xFF	; 255
    2888:	7f 4f       	sbci	r23, 0xFF	; 255
    288a:	61 70       	andi	r22, 0x01	; 1
    288c:	70 78       	andi	r23, 0x80	; 128
    288e:	77 23       	and	r23, r23
    2890:	34 f4       	brge	.+12     	; 0x289e <sortCheck+0x30e>
    2892:	61 50       	subi	r22, 0x01	; 1
    2894:	71 09       	sbc	r23, r1
    2896:	6e 6f       	ori	r22, 0xFE	; 254
    2898:	7f 6f       	ori	r23, 0xFF	; 255
    289a:	6f 5f       	subi	r22, 0xFF	; 255
    289c:	7f 4f       	sbci	r23, 0xFF	; 255
    289e:	6c 5f       	subi	r22, 0xFC	; 252
    28a0:	7f 4f       	sbci	r23, 0xFF	; 255
    28a2:	81 70       	andi	r24, 0x01	; 1
    28a4:	90 78       	andi	r25, 0x80	; 128
    28a6:	99 23       	and	r25, r25
    28a8:	24 f4       	brge	.+8      	; 0x28b2 <sortCheck+0x322>
    28aa:	01 97       	sbiw	r24, 0x01	; 1
    28ac:	8e 6f       	ori	r24, 0xFE	; 254
    28ae:	9f 6f       	ori	r25, 0xFF	; 255
    28b0:	01 96       	adiw	r24, 0x01	; 1
    28b2:	04 96       	adiw	r24, 0x04	; 4
    28b4:	0e 94 92 07 	call	0xf24	; 0xf24 <traverseToSort>
			newSort();
    28b8:	9a dc       	rcall	.-1740   	; 0x21ee <newSort>
			if (ct == 4 || ct == 5)
    28ba:	80 91 87 02 	lds	r24, 0x0287
    28be:	90 91 88 02 	lds	r25, 0x0288
    28c2:	04 97       	sbiw	r24, 0x04	; 4
    28c4:	02 97       	sbiw	r24, 0x02	; 2
    28c6:	08 f0       	brcs	.+2      	; 0x28ca <sortCheck+0x33a>
    28c8:	89 c0       	rjmp	.+274    	; 0x29dc <sortCheck+0x44c>
				newSort();
    28ca:	91 dc       	rcall	.-1758   	; 0x21ee <newSort>
    28cc:	87 c0       	rjmp	.+270    	; 0x29dc <sortCheck+0x44c>
			return;
		}
		else ct = adj;
    28ce:	90 93 88 02 	sts	0x0288, r25
    28d2:	80 93 87 02 	sts	0x0287, r24
		}
		else ct = adj;
	}
	else if (arm[arm0] != color[adj] && arm[arm1] != color[adj])
	{
		if (armCount == 0 || (armCount == 1 && sort[ct % 2] != -1) || ((armCount == 2 || armCount == 1) && (term[adj][0] == color[adj] || term[adj][0] == -1) && (term[adj][1] == color[adj] || term[adj][1] == -1)))
    28d6:	71 c0       	rjmp	.+226    	; 0x29ba <sortCheck+0x42a>
		}
		else ct = adj;
	}
	else
	{
		if (armCount == 0 && ((visited[adj] == 1 && (term[adj][0] != -1 && term[adj][1] != -1)) || visited[adj] == 0) && sort[ct % 2] == -1)
    28d8:	a0 91 02 02 	lds	r26, 0x0202
    28dc:	b0 91 03 02 	lds	r27, 0x0203
    28e0:	10 97       	sbiw	r26, 0x00	; 0
    28e2:	c1 f5       	brne	.+112    	; 0x2954 <sortCheck+0x3c4>
    28e4:	dc 01       	movw	r26, r24
    28e6:	aa 0f       	add	r26, r26
    28e8:	bb 1f       	adc	r27, r27
    28ea:	ac 59       	subi	r26, 0x9C	; 156
    28ec:	bd 4f       	sbci	r27, 0xFD	; 253
    28ee:	0d 90       	ld	r0, X+
    28f0:	bc 91       	ld	r27, X
    28f2:	a0 2d       	mov	r26, r0
    28f4:	a1 30       	cpi	r26, 0x01	; 1
    28f6:	b1 05       	cpc	r27, r1
    28f8:	d9 f4       	brne	.+54     	; 0x2930 <sortCheck+0x3a0>
    28fa:	dc 01       	movw	r26, r24
    28fc:	aa 0f       	add	r26, r26
    28fe:	bb 1f       	adc	r27, r27
    2900:	aa 0f       	add	r26, r26
    2902:	bb 1f       	adc	r27, r27
    2904:	a5 57       	subi	r26, 0x75	; 117
    2906:	bd 4f       	sbci	r27, 0xFD	; 253
    2908:	0d 90       	ld	r0, X+
    290a:	bc 91       	ld	r27, X
    290c:	a0 2d       	mov	r26, r0
    290e:	11 96       	adiw	r26, 0x01	; 1
    2910:	09 f4       	brne	.+2      	; 0x2914 <sortCheck+0x384>
    2912:	4b c0       	rjmp	.+150    	; 0x29aa <sortCheck+0x41a>
    2914:	dc 01       	movw	r26, r24
    2916:	aa 0f       	add	r26, r26
    2918:	bb 1f       	adc	r27, r27
    291a:	aa 0f       	add	r26, r26
    291c:	bb 1f       	adc	r27, r27
    291e:	a5 57       	subi	r26, 0x75	; 117
    2920:	bd 4f       	sbci	r27, 0xFD	; 253
    2922:	12 96       	adiw	r26, 0x02	; 2
    2924:	8d 91       	ld	r24, X+
    2926:	9c 91       	ld	r25, X
    2928:	13 97       	sbiw	r26, 0x03	; 3
    292a:	01 96       	adiw	r24, 0x01	; 1
    292c:	19 f4       	brne	.+6      	; 0x2934 <sortCheck+0x3a4>
    292e:	3d c0       	rjmp	.+122    	; 0x29aa <sortCheck+0x41a>
    2930:	ab 2b       	or	r26, r27
    2932:	d9 f5       	brne	.+118    	; 0x29aa <sortCheck+0x41a>
    2934:	2f 3f       	cpi	r18, 0xFF	; 255
    2936:	3f 4f       	sbci	r19, 0xFF	; 255
    2938:	c1 f5       	brne	.+112    	; 0x29aa <sortCheck+0x41a>
			if (arm[arm0] == color[adj])
    293a:	4e 17       	cp	r20, r30
    293c:	5f 07       	cpc	r21, r31
    293e:	29 f4       	brne	.+10     	; 0x294a <sortCheck+0x3ba>
				sortDrop(arm1, ct % 2);
    2940:	6b 2d       	mov	r22, r11
    2942:	7a 2d       	mov	r23, r10
    2944:	c8 01       	movw	r24, r16
    2946:	46 da       	rcall	.-2932   	; 0x1dd4 <sortDrop>
    2948:	30 c0       	rjmp	.+96     	; 0x29aa <sortCheck+0x41a>
			else sortDrop(arm0, ct % 2);
    294a:	6b 2d       	mov	r22, r11
    294c:	7a 2d       	mov	r23, r10
    294e:	ce 01       	movw	r24, r28
    2950:	41 da       	rcall	.-2942   	; 0x1dd4 <sortDrop>
    2952:	2b c0       	rjmp	.+86     	; 0x29aa <sortCheck+0x41a>
		else if (armCount == 1 && (term[adj][0] == -1 || term[adj][1] == -1) && sort[ct % 2] != -1)
    2954:	11 97       	sbiw	r26, 0x01	; 1
    2956:	49 f5       	brne	.+82     	; 0x29aa <sortCheck+0x41a>
    2958:	dc 01       	movw	r26, r24
    295a:	aa 0f       	add	r26, r26
    295c:	bb 1f       	adc	r27, r27
    295e:	aa 0f       	add	r26, r26
    2960:	bb 1f       	adc	r27, r27
    2962:	a5 57       	subi	r26, 0x75	; 117
    2964:	bd 4f       	sbci	r27, 0xFD	; 253
    2966:	4d 91       	ld	r20, X+
    2968:	5c 91       	ld	r21, X
    296a:	4f 3f       	cpi	r20, 0xFF	; 255
    296c:	5f 4f       	sbci	r21, 0xFF	; 255
    296e:	69 f0       	breq	.+26     	; 0x298a <sortCheck+0x3fa>
    2970:	dc 01       	movw	r26, r24
    2972:	aa 0f       	add	r26, r26
    2974:	bb 1f       	adc	r27, r27
    2976:	aa 0f       	add	r26, r26
    2978:	bb 1f       	adc	r27, r27
    297a:	a5 57       	subi	r26, 0x75	; 117
    297c:	bd 4f       	sbci	r27, 0xFD	; 253
    297e:	12 96       	adiw	r26, 0x02	; 2
    2980:	8d 91       	ld	r24, X+
    2982:	9c 91       	ld	r25, X
    2984:	13 97       	sbiw	r26, 0x03	; 3
    2986:	01 96       	adiw	r24, 0x01	; 1
    2988:	81 f4       	brne	.+32     	; 0x29aa <sortCheck+0x41a>
    298a:	2f 3f       	cpi	r18, 0xFF	; 255
    298c:	3f 4f       	sbci	r19, 0xFF	; 255
    298e:	69 f0       	breq	.+26     	; 0x29aa <sortCheck+0x41a>
			if (arm[arm0] == -1)
    2990:	31 96       	adiw	r30, 0x01	; 1
    2992:	31 f4       	brne	.+12     	; 0x29a0 <sortCheck+0x410>
				pickSort(arm0, ct % 2);
    2994:	6b 2d       	mov	r22, r11
    2996:	7a 2d       	mov	r23, r10
    2998:	ce 01       	movw	r24, r28
    299a:	0e 94 e9 0b 	call	0x17d2	; 0x17d2 <pickSort>
    299e:	05 c0       	rjmp	.+10     	; 0x29aa <sortCheck+0x41a>
			else	pickSort(arm1, ct % 2);
    29a0:	6b 2d       	mov	r22, r11
    29a2:	7a 2d       	mov	r23, r10
    29a4:	c8 01       	movw	r24, r16
    29a6:	0e 94 e9 0b 	call	0x17d2	; 0x17d2 <pickSort>
			ct = adj;
    29aa:	80 91 ad 02 	lds	r24, 0x02AD
    29ae:	90 91 ae 02 	lds	r25, 0x02AE
    29b2:	90 93 88 02 	sts	0x0288, r25
    29b6:	80 93 87 02 	sts	0x0287, r24
	arm[0] = arm[1] = -1;
}

int adjCount(ct)
{
	return (ct + 2) % 4;
    29ba:	80 91 87 02 	lds	r24, 0x0287
    29be:	90 91 88 02 	lds	r25, 0x0288
    29c2:	02 96       	adiw	r24, 0x02	; 2
    29c4:	83 70       	andi	r24, 0x03	; 3
    29c6:	90 78       	andi	r25, 0x80	; 128
    29c8:	99 23       	and	r25, r25
    29ca:	24 f4       	brge	.+8      	; 0x29d4 <sortCheck+0x444>
    29cc:	01 97       	sbiw	r24, 0x01	; 1
    29ce:	8c 6f       	ori	r24, 0xFC	; 252
    29d0:	9f 6f       	ori	r25, 0xFF	; 255
    29d2:	01 96       	adiw	r24, 0x01	; 1
			if (arm[arm0] == -1)
				pickSort(arm0, ct % 2);
			else	pickSort(arm1, ct % 2);
			ct = adj;
	}
	adj = adjCount(ct);
    29d4:	90 93 ae 02 	sts	0x02AE, r25
    29d8:	80 93 ad 02 	sts	0x02AD, r24
}
    29dc:	df 91       	pop	r29
    29de:	cf 91       	pop	r28
    29e0:	1f 91       	pop	r17
    29e2:	0f 91       	pop	r16
    29e4:	ff 90       	pop	r15
    29e6:	ef 90       	pop	r14
    29e8:	df 90       	pop	r13
    29ea:	cf 90       	pop	r12
    29ec:	bf 90       	pop	r11
    29ee:	af 90       	pop	r10
    29f0:	9f 90       	pop	r9
    29f2:	8f 90       	pop	r8
    29f4:	08 95       	ret

000029f6 <predict>:

void predict()
{
	if (term[0][0] == color[0] && term[0][1] == color[0] && term[1][0] == color[1] && term[1][1] == color[1] && term[ct][0] == color[ct] && term[ct][1] == color[ct] && sort[0] == -1 && sort[1] == -1 && arm[0] == -1 && arm[1] == -1)
    29f6:	80 91 8b 02 	lds	r24, 0x028B
    29fa:	90 91 8c 02 	lds	r25, 0x028C
    29fe:	20 91 9d 02 	lds	r18, 0x029D
    2a02:	30 91 9e 02 	lds	r19, 0x029E
    2a06:	82 17       	cp	r24, r18
    2a08:	93 07       	cpc	r25, r19
    2a0a:	09 f0       	breq	.+2      	; 0x2a0e <predict+0x18>
    2a0c:	5f c0       	rjmp	.+190    	; 0x2acc <predict+0xd6>
    2a0e:	20 91 8d 02 	lds	r18, 0x028D
    2a12:	30 91 8e 02 	lds	r19, 0x028E
    2a16:	82 17       	cp	r24, r18
    2a18:	93 07       	cpc	r25, r19
    2a1a:	09 f0       	breq	.+2      	; 0x2a1e <predict+0x28>
    2a1c:	57 c0       	rjmp	.+174    	; 0x2acc <predict+0xd6>
    2a1e:	80 91 8f 02 	lds	r24, 0x028F
    2a22:	90 91 90 02 	lds	r25, 0x0290
    2a26:	20 91 9f 02 	lds	r18, 0x029F
    2a2a:	30 91 a0 02 	lds	r19, 0x02A0
    2a2e:	82 17       	cp	r24, r18
    2a30:	93 07       	cpc	r25, r19
    2a32:	09 f0       	breq	.+2      	; 0x2a36 <predict+0x40>
    2a34:	4b c0       	rjmp	.+150    	; 0x2acc <predict+0xd6>
    2a36:	20 91 91 02 	lds	r18, 0x0291
    2a3a:	30 91 92 02 	lds	r19, 0x0292
    2a3e:	82 17       	cp	r24, r18
    2a40:	93 07       	cpc	r25, r19
    2a42:	09 f0       	breq	.+2      	; 0x2a46 <predict+0x50>
    2a44:	43 c0       	rjmp	.+134    	; 0x2acc <predict+0xd6>
    2a46:	80 91 87 02 	lds	r24, 0x0287
    2a4a:	90 91 88 02 	lds	r25, 0x0288
    2a4e:	fc 01       	movw	r30, r24
    2a50:	ee 0f       	add	r30, r30
    2a52:	ff 1f       	adc	r31, r31
    2a54:	ee 0f       	add	r30, r30
    2a56:	ff 1f       	adc	r31, r31
    2a58:	e5 57       	subi	r30, 0x75	; 117
    2a5a:	fd 4f       	sbci	r31, 0xFD	; 253
    2a5c:	20 81       	ld	r18, Z
    2a5e:	31 81       	ldd	r19, Z+1	; 0x01
    2a60:	fc 01       	movw	r30, r24
    2a62:	ee 0f       	add	r30, r30
    2a64:	ff 1f       	adc	r31, r31
    2a66:	e3 56       	subi	r30, 0x63	; 99
    2a68:	fd 4f       	sbci	r31, 0xFD	; 253
    2a6a:	40 81       	ld	r20, Z
    2a6c:	51 81       	ldd	r21, Z+1	; 0x01
    2a6e:	24 17       	cp	r18, r20
    2a70:	35 07       	cpc	r19, r21
    2a72:	61 f5       	brne	.+88     	; 0x2acc <predict+0xd6>
    2a74:	fc 01       	movw	r30, r24
    2a76:	ee 0f       	add	r30, r30
    2a78:	ff 1f       	adc	r31, r31
    2a7a:	ee 0f       	add	r30, r30
    2a7c:	ff 1f       	adc	r31, r31
    2a7e:	e5 57       	subi	r30, 0x75	; 117
    2a80:	fd 4f       	sbci	r31, 0xFD	; 253
    2a82:	82 81       	ldd	r24, Z+2	; 0x02
    2a84:	93 81       	ldd	r25, Z+3	; 0x03
    2a86:	28 17       	cp	r18, r24
    2a88:	39 07       	cpc	r19, r25
    2a8a:	01 f5       	brne	.+64     	; 0x2acc <predict+0xd6>
    2a8c:	80 91 83 02 	lds	r24, 0x0283
    2a90:	90 91 84 02 	lds	r25, 0x0284
    2a94:	01 96       	adiw	r24, 0x01	; 1
    2a96:	d1 f4       	brne	.+52     	; 0x2acc <predict+0xd6>
    2a98:	80 91 85 02 	lds	r24, 0x0285
    2a9c:	90 91 86 02 	lds	r25, 0x0286
    2aa0:	01 96       	adiw	r24, 0x01	; 1
    2aa2:	a1 f4       	brne	.+40     	; 0x2acc <predict+0xd6>
    2aa4:	80 91 b1 02 	lds	r24, 0x02B1
    2aa8:	90 91 b2 02 	lds	r25, 0x02B2
    2aac:	01 96       	adiw	r24, 0x01	; 1
    2aae:	71 f4       	brne	.+28     	; 0x2acc <predict+0xd6>
    2ab0:	80 91 b3 02 	lds	r24, 0x02B3
    2ab4:	90 91 b4 02 	lds	r25, 0x02B4
    2ab8:	01 96       	adiw	r24, 0x01	; 1
    2aba:	41 f4       	brne	.+16     	; 0x2acc <predict+0xd6>
		sorted = total;
    2abc:	80 91 00 02 	lds	r24, 0x0200
    2ac0:	90 91 01 02 	lds	r25, 0x0201
    2ac4:	90 93 57 02 	sts	0x0257, r25
    2ac8:	80 93 56 02 	sts	0x0256, r24
    2acc:	08 95       	ret

00002ace <main>:

}
int main()
{
	int i=0;
	init_devices();
    2ace:	0e 94 d6 04 	call	0x9ac	; 0x9ac <init_devices>
	lcd_set_4bit();
    2ad2:	0e 94 94 00 	call	0x128	; 0x128 <lcd_set_4bit>
	lcd_init();
    2ad6:	0e 94 fe 00 	call	0x1fc	; 0x1fc <lcd_init>
	color_sensor_scaling();
    2ada:	0e 94 5d 03 	call	0x6ba	; 0x6ba <color_sensor_scaling>
	stop();
	lcd_print(2,11,scan(),1);
	stop();
	while(1);
	*/
	setIndicatorAndColor();
    2ade:	0e 94 b8 08 	call	0x1170	; 0x1170 <setIndicatorAndColor>
	
	threshold=6000;
    2ae2:	80 e7       	ldi	r24, 0x70	; 112
    2ae4:	97 e1       	ldi	r25, 0x17	; 23
    2ae6:	90 93 6d 02 	sts	0x026D, r25
    2aea:	80 93 6c 02 	sts	0x026C, r24
	ct = 0; adj = 2;
    2aee:	10 92 88 02 	sts	0x0288, r1
    2af2:	10 92 87 02 	sts	0x0287, r1
    2af6:	82 e0       	ldi	r24, 0x02	; 2
    2af8:	90 e0       	ldi	r25, 0x00	; 0
    2afa:	90 93 ae 02 	sts	0x02AE, r25
    2afe:	80 93 ad 02 	sts	0x02AD, r24
	//lcd("Begin");
	forwardJaa();
    2b02:	0e 94 12 06 	call	0xc24	; 0xc24 <forwardJaa>
	stop();
    2b06:	0e 94 92 02 	call	0x524	; 0x524 <stop>
	while (sorted<total)
    2b0a:	20 91 56 02 	lds	r18, 0x0256
    2b0e:	30 91 57 02 	lds	r19, 0x0257
    2b12:	80 91 00 02 	lds	r24, 0x0200
    2b16:	90 91 01 02 	lds	r25, 0x0201
    2b1a:	28 17       	cp	r18, r24
    2b1c:	39 07       	cpc	r19, r25
    2b1e:	a4 f5       	brge	.+104    	; 0x2b88 <main+0xba>
	{
		canDrop();
    2b20:	f0 d9       	rcall	.-3104   	; 0x1f02 <canDrop>
		//buzzer_on();
		//_delay_ms(500);
		//buzzer_off();
		if (visitedCount == 3)
    2b22:	80 91 52 02 	lds	r24, 0x0252
    2b26:	90 91 53 02 	lds	r25, 0x0253
    2b2a:	03 97       	sbiw	r24, 0x03	; 3
    2b2c:	09 f4       	brne	.+2      	; 0x2b30 <main+0x62>
			predict();
    2b2e:	63 df       	rcall	.-314    	; 0x29f6 <predict>
		if (sorted == total)
    2b30:	20 91 56 02 	lds	r18, 0x0256
    2b34:	30 91 57 02 	lds	r19, 0x0257
    2b38:	80 91 00 02 	lds	r24, 0x0200
    2b3c:	90 91 01 02 	lds	r25, 0x0201
    2b40:	28 17       	cp	r18, r24
    2b42:	39 07       	cpc	r19, r25
    2b44:	09 f1       	breq	.+66     	; 0x2b88 <main+0xba>
			break;
		pickup();
    2b46:	0e 94 2b 0c 	call	0x1856	; 0x1856 <pickup>
		traverseToSort(ct, ct % 2 + 4);
    2b4a:	80 91 87 02 	lds	r24, 0x0287
    2b4e:	90 91 88 02 	lds	r25, 0x0288
    2b52:	bc 01       	movw	r22, r24
    2b54:	61 70       	andi	r22, 0x01	; 1
    2b56:	70 78       	andi	r23, 0x80	; 128
    2b58:	77 23       	and	r23, r23
    2b5a:	34 f4       	brge	.+12     	; 0x2b68 <main+0x9a>
    2b5c:	61 50       	subi	r22, 0x01	; 1
    2b5e:	71 09       	sbc	r23, r1
    2b60:	6e 6f       	ori	r22, 0xFE	; 254
    2b62:	7f 6f       	ori	r23, 0xFF	; 255
    2b64:	6f 5f       	subi	r22, 0xFF	; 255
    2b66:	7f 4f       	sbci	r23, 0xFF	; 255
    2b68:	6c 5f       	subi	r22, 0xFC	; 252
    2b6a:	7f 4f       	sbci	r23, 0xFF	; 255
    2b6c:	0e 94 92 07 	call	0xf24	; 0xf24 <traverseToSort>
		sortCheck();
    2b70:	0f dd       	rcall	.-1506   	; 0x2590 <sortCheck>
	threshold=6000;
	ct = 0; adj = 2;
	//lcd("Begin");
	forwardJaa();
	stop();
	while (sorted<total)
    2b72:	20 91 56 02 	lds	r18, 0x0256
    2b76:	30 91 57 02 	lds	r19, 0x0257
    2b7a:	80 91 00 02 	lds	r24, 0x0200
    2b7e:	90 91 01 02 	lds	r25, 0x0201
    2b82:	28 17       	cp	r18, r24
    2b84:	39 07       	cpc	r19, r25
    2b86:	64 f2       	brlt	.-104    	; 0x2b20 <main+0x52>
		//..printf("%d %d\n", term[i][0], term[i][1]);
	//..printf("Sort 0=%dSort 1=%d\nArm 0=%dArm 1=%d\n", sort[0], sort[1], arm[0], arm[1]);
	//..printf("Cost=%d\nSORTED!!!!!\n", cost + 7);
	//getch();
	return 0;
    2b88:	80 e0       	ldi	r24, 0x00	; 0
    2b8a:	90 e0       	ldi	r25, 0x00	; 0
    2b8c:	08 95       	ret

00002b8e <__subsf3>:
    2b8e:	50 58       	subi	r21, 0x80	; 128

00002b90 <__addsf3>:
    2b90:	bb 27       	eor	r27, r27
    2b92:	aa 27       	eor	r26, r26
    2b94:	0e d0       	rcall	.+28     	; 0x2bb2 <__addsf3x>
    2b96:	48 c1       	rjmp	.+656    	; 0x2e28 <__fp_round>
    2b98:	39 d1       	rcall	.+626    	; 0x2e0c <__fp_pscA>
    2b9a:	30 f0       	brcs	.+12     	; 0x2ba8 <__addsf3+0x18>
    2b9c:	3e d1       	rcall	.+636    	; 0x2e1a <__fp_pscB>
    2b9e:	20 f0       	brcs	.+8      	; 0x2ba8 <__addsf3+0x18>
    2ba0:	31 f4       	brne	.+12     	; 0x2bae <__addsf3+0x1e>
    2ba2:	9f 3f       	cpi	r25, 0xFF	; 255
    2ba4:	11 f4       	brne	.+4      	; 0x2baa <__addsf3+0x1a>
    2ba6:	1e f4       	brtc	.+6      	; 0x2bae <__addsf3+0x1e>
    2ba8:	2e c1       	rjmp	.+604    	; 0x2e06 <__fp_nan>
    2baa:	0e f4       	brtc	.+2      	; 0x2bae <__addsf3+0x1e>
    2bac:	e0 95       	com	r30
    2bae:	e7 fb       	bst	r30, 7
    2bb0:	24 c1       	rjmp	.+584    	; 0x2dfa <__fp_inf>

00002bb2 <__addsf3x>:
    2bb2:	e9 2f       	mov	r30, r25
    2bb4:	4a d1       	rcall	.+660    	; 0x2e4a <__fp_split3>
    2bb6:	80 f3       	brcs	.-32     	; 0x2b98 <__addsf3+0x8>
    2bb8:	ba 17       	cp	r27, r26
    2bba:	62 07       	cpc	r22, r18
    2bbc:	73 07       	cpc	r23, r19
    2bbe:	84 07       	cpc	r24, r20
    2bc0:	95 07       	cpc	r25, r21
    2bc2:	18 f0       	brcs	.+6      	; 0x2bca <__addsf3x+0x18>
    2bc4:	71 f4       	brne	.+28     	; 0x2be2 <__addsf3x+0x30>
    2bc6:	9e f5       	brtc	.+102    	; 0x2c2e <__addsf3x+0x7c>
    2bc8:	62 c1       	rjmp	.+708    	; 0x2e8e <__fp_zero>
    2bca:	0e f4       	brtc	.+2      	; 0x2bce <__addsf3x+0x1c>
    2bcc:	e0 95       	com	r30
    2bce:	0b 2e       	mov	r0, r27
    2bd0:	ba 2f       	mov	r27, r26
    2bd2:	a0 2d       	mov	r26, r0
    2bd4:	0b 01       	movw	r0, r22
    2bd6:	b9 01       	movw	r22, r18
    2bd8:	90 01       	movw	r18, r0
    2bda:	0c 01       	movw	r0, r24
    2bdc:	ca 01       	movw	r24, r20
    2bde:	a0 01       	movw	r20, r0
    2be0:	11 24       	eor	r1, r1
    2be2:	ff 27       	eor	r31, r31
    2be4:	59 1b       	sub	r21, r25
    2be6:	99 f0       	breq	.+38     	; 0x2c0e <__addsf3x+0x5c>
    2be8:	59 3f       	cpi	r21, 0xF9	; 249
    2bea:	50 f4       	brcc	.+20     	; 0x2c00 <__addsf3x+0x4e>
    2bec:	50 3e       	cpi	r21, 0xE0	; 224
    2bee:	68 f1       	brcs	.+90     	; 0x2c4a <__addsf3x+0x98>
    2bf0:	1a 16       	cp	r1, r26
    2bf2:	f0 40       	sbci	r31, 0x00	; 0
    2bf4:	a2 2f       	mov	r26, r18
    2bf6:	23 2f       	mov	r18, r19
    2bf8:	34 2f       	mov	r19, r20
    2bfa:	44 27       	eor	r20, r20
    2bfc:	58 5f       	subi	r21, 0xF8	; 248
    2bfe:	f3 cf       	rjmp	.-26     	; 0x2be6 <__addsf3x+0x34>
    2c00:	46 95       	lsr	r20
    2c02:	37 95       	ror	r19
    2c04:	27 95       	ror	r18
    2c06:	a7 95       	ror	r26
    2c08:	f0 40       	sbci	r31, 0x00	; 0
    2c0a:	53 95       	inc	r21
    2c0c:	c9 f7       	brne	.-14     	; 0x2c00 <__addsf3x+0x4e>
    2c0e:	7e f4       	brtc	.+30     	; 0x2c2e <__addsf3x+0x7c>
    2c10:	1f 16       	cp	r1, r31
    2c12:	ba 0b       	sbc	r27, r26
    2c14:	62 0b       	sbc	r22, r18
    2c16:	73 0b       	sbc	r23, r19
    2c18:	84 0b       	sbc	r24, r20
    2c1a:	ba f0       	brmi	.+46     	; 0x2c4a <__addsf3x+0x98>
    2c1c:	91 50       	subi	r25, 0x01	; 1
    2c1e:	a1 f0       	breq	.+40     	; 0x2c48 <__addsf3x+0x96>
    2c20:	ff 0f       	add	r31, r31
    2c22:	bb 1f       	adc	r27, r27
    2c24:	66 1f       	adc	r22, r22
    2c26:	77 1f       	adc	r23, r23
    2c28:	88 1f       	adc	r24, r24
    2c2a:	c2 f7       	brpl	.-16     	; 0x2c1c <__addsf3x+0x6a>
    2c2c:	0e c0       	rjmp	.+28     	; 0x2c4a <__addsf3x+0x98>
    2c2e:	ba 0f       	add	r27, r26
    2c30:	62 1f       	adc	r22, r18
    2c32:	73 1f       	adc	r23, r19
    2c34:	84 1f       	adc	r24, r20
    2c36:	48 f4       	brcc	.+18     	; 0x2c4a <__addsf3x+0x98>
    2c38:	87 95       	ror	r24
    2c3a:	77 95       	ror	r23
    2c3c:	67 95       	ror	r22
    2c3e:	b7 95       	ror	r27
    2c40:	f7 95       	ror	r31
    2c42:	9e 3f       	cpi	r25, 0xFE	; 254
    2c44:	08 f0       	brcs	.+2      	; 0x2c48 <__addsf3x+0x96>
    2c46:	b3 cf       	rjmp	.-154    	; 0x2bae <__addsf3+0x1e>
    2c48:	93 95       	inc	r25
    2c4a:	88 0f       	add	r24, r24
    2c4c:	08 f0       	brcs	.+2      	; 0x2c50 <__addsf3x+0x9e>
    2c4e:	99 27       	eor	r25, r25
    2c50:	ee 0f       	add	r30, r30
    2c52:	97 95       	ror	r25
    2c54:	87 95       	ror	r24
    2c56:	08 95       	ret

00002c58 <__divsf3>:
    2c58:	0c d0       	rcall	.+24     	; 0x2c72 <__divsf3x>
    2c5a:	e6 c0       	rjmp	.+460    	; 0x2e28 <__fp_round>
    2c5c:	de d0       	rcall	.+444    	; 0x2e1a <__fp_pscB>
    2c5e:	40 f0       	brcs	.+16     	; 0x2c70 <__divsf3+0x18>
    2c60:	d5 d0       	rcall	.+426    	; 0x2e0c <__fp_pscA>
    2c62:	30 f0       	brcs	.+12     	; 0x2c70 <__divsf3+0x18>
    2c64:	21 f4       	brne	.+8      	; 0x2c6e <__divsf3+0x16>
    2c66:	5f 3f       	cpi	r21, 0xFF	; 255
    2c68:	19 f0       	breq	.+6      	; 0x2c70 <__divsf3+0x18>
    2c6a:	c7 c0       	rjmp	.+398    	; 0x2dfa <__fp_inf>
    2c6c:	51 11       	cpse	r21, r1
    2c6e:	10 c1       	rjmp	.+544    	; 0x2e90 <__fp_szero>
    2c70:	ca c0       	rjmp	.+404    	; 0x2e06 <__fp_nan>

00002c72 <__divsf3x>:
    2c72:	eb d0       	rcall	.+470    	; 0x2e4a <__fp_split3>
    2c74:	98 f3       	brcs	.-26     	; 0x2c5c <__divsf3+0x4>

00002c76 <__divsf3_pse>:
    2c76:	99 23       	and	r25, r25
    2c78:	c9 f3       	breq	.-14     	; 0x2c6c <__divsf3+0x14>
    2c7a:	55 23       	and	r21, r21
    2c7c:	b1 f3       	breq	.-20     	; 0x2c6a <__divsf3+0x12>
    2c7e:	95 1b       	sub	r25, r21
    2c80:	55 0b       	sbc	r21, r21
    2c82:	bb 27       	eor	r27, r27
    2c84:	aa 27       	eor	r26, r26
    2c86:	62 17       	cp	r22, r18
    2c88:	73 07       	cpc	r23, r19
    2c8a:	84 07       	cpc	r24, r20
    2c8c:	38 f0       	brcs	.+14     	; 0x2c9c <__divsf3_pse+0x26>
    2c8e:	9f 5f       	subi	r25, 0xFF	; 255
    2c90:	5f 4f       	sbci	r21, 0xFF	; 255
    2c92:	22 0f       	add	r18, r18
    2c94:	33 1f       	adc	r19, r19
    2c96:	44 1f       	adc	r20, r20
    2c98:	aa 1f       	adc	r26, r26
    2c9a:	a9 f3       	breq	.-22     	; 0x2c86 <__divsf3_pse+0x10>
    2c9c:	33 d0       	rcall	.+102    	; 0x2d04 <__divsf3_pse+0x8e>
    2c9e:	0e 2e       	mov	r0, r30
    2ca0:	3a f0       	brmi	.+14     	; 0x2cb0 <__divsf3_pse+0x3a>
    2ca2:	e0 e8       	ldi	r30, 0x80	; 128
    2ca4:	30 d0       	rcall	.+96     	; 0x2d06 <__divsf3_pse+0x90>
    2ca6:	91 50       	subi	r25, 0x01	; 1
    2ca8:	50 40       	sbci	r21, 0x00	; 0
    2caa:	e6 95       	lsr	r30
    2cac:	00 1c       	adc	r0, r0
    2cae:	ca f7       	brpl	.-14     	; 0x2ca2 <__divsf3_pse+0x2c>
    2cb0:	29 d0       	rcall	.+82     	; 0x2d04 <__divsf3_pse+0x8e>
    2cb2:	fe 2f       	mov	r31, r30
    2cb4:	27 d0       	rcall	.+78     	; 0x2d04 <__divsf3_pse+0x8e>
    2cb6:	66 0f       	add	r22, r22
    2cb8:	77 1f       	adc	r23, r23
    2cba:	88 1f       	adc	r24, r24
    2cbc:	bb 1f       	adc	r27, r27
    2cbe:	26 17       	cp	r18, r22
    2cc0:	37 07       	cpc	r19, r23
    2cc2:	48 07       	cpc	r20, r24
    2cc4:	ab 07       	cpc	r26, r27
    2cc6:	b0 e8       	ldi	r27, 0x80	; 128
    2cc8:	09 f0       	breq	.+2      	; 0x2ccc <__divsf3_pse+0x56>
    2cca:	bb 0b       	sbc	r27, r27
    2ccc:	80 2d       	mov	r24, r0
    2cce:	bf 01       	movw	r22, r30
    2cd0:	ff 27       	eor	r31, r31
    2cd2:	93 58       	subi	r25, 0x83	; 131
    2cd4:	5f 4f       	sbci	r21, 0xFF	; 255
    2cd6:	2a f0       	brmi	.+10     	; 0x2ce2 <__divsf3_pse+0x6c>
    2cd8:	9e 3f       	cpi	r25, 0xFE	; 254
    2cda:	51 05       	cpc	r21, r1
    2cdc:	68 f0       	brcs	.+26     	; 0x2cf8 <__divsf3_pse+0x82>
    2cde:	8d c0       	rjmp	.+282    	; 0x2dfa <__fp_inf>
    2ce0:	d7 c0       	rjmp	.+430    	; 0x2e90 <__fp_szero>
    2ce2:	5f 3f       	cpi	r21, 0xFF	; 255
    2ce4:	ec f3       	brlt	.-6      	; 0x2ce0 <__divsf3_pse+0x6a>
    2ce6:	98 3e       	cpi	r25, 0xE8	; 232
    2ce8:	dc f3       	brlt	.-10     	; 0x2ce0 <__divsf3_pse+0x6a>
    2cea:	86 95       	lsr	r24
    2cec:	77 95       	ror	r23
    2cee:	67 95       	ror	r22
    2cf0:	b7 95       	ror	r27
    2cf2:	f7 95       	ror	r31
    2cf4:	9f 5f       	subi	r25, 0xFF	; 255
    2cf6:	c9 f7       	brne	.-14     	; 0x2cea <__divsf3_pse+0x74>
    2cf8:	88 0f       	add	r24, r24
    2cfa:	91 1d       	adc	r25, r1
    2cfc:	96 95       	lsr	r25
    2cfe:	87 95       	ror	r24
    2d00:	97 f9       	bld	r25, 7
    2d02:	08 95       	ret
    2d04:	e1 e0       	ldi	r30, 0x01	; 1
    2d06:	66 0f       	add	r22, r22
    2d08:	77 1f       	adc	r23, r23
    2d0a:	88 1f       	adc	r24, r24
    2d0c:	bb 1f       	adc	r27, r27
    2d0e:	62 17       	cp	r22, r18
    2d10:	73 07       	cpc	r23, r19
    2d12:	84 07       	cpc	r24, r20
    2d14:	ba 07       	cpc	r27, r26
    2d16:	20 f0       	brcs	.+8      	; 0x2d20 <__divsf3_pse+0xaa>
    2d18:	62 1b       	sub	r22, r18
    2d1a:	73 0b       	sbc	r23, r19
    2d1c:	84 0b       	sbc	r24, r20
    2d1e:	ba 0b       	sbc	r27, r26
    2d20:	ee 1f       	adc	r30, r30
    2d22:	88 f7       	brcc	.-30     	; 0x2d06 <__divsf3_pse+0x90>
    2d24:	e0 95       	com	r30
    2d26:	08 95       	ret

00002d28 <__fixunssfsi>:
    2d28:	98 d0       	rcall	.+304    	; 0x2e5a <__fp_splitA>
    2d2a:	88 f0       	brcs	.+34     	; 0x2d4e <__fixunssfsi+0x26>
    2d2c:	9f 57       	subi	r25, 0x7F	; 127
    2d2e:	90 f0       	brcs	.+36     	; 0x2d54 <__fixunssfsi+0x2c>
    2d30:	b9 2f       	mov	r27, r25
    2d32:	99 27       	eor	r25, r25
    2d34:	b7 51       	subi	r27, 0x17	; 23
    2d36:	a0 f0       	brcs	.+40     	; 0x2d60 <__fixunssfsi+0x38>
    2d38:	d1 f0       	breq	.+52     	; 0x2d6e <__fixunssfsi+0x46>
    2d3a:	66 0f       	add	r22, r22
    2d3c:	77 1f       	adc	r23, r23
    2d3e:	88 1f       	adc	r24, r24
    2d40:	99 1f       	adc	r25, r25
    2d42:	1a f0       	brmi	.+6      	; 0x2d4a <__fixunssfsi+0x22>
    2d44:	ba 95       	dec	r27
    2d46:	c9 f7       	brne	.-14     	; 0x2d3a <__fixunssfsi+0x12>
    2d48:	12 c0       	rjmp	.+36     	; 0x2d6e <__fixunssfsi+0x46>
    2d4a:	b1 30       	cpi	r27, 0x01	; 1
    2d4c:	81 f0       	breq	.+32     	; 0x2d6e <__fixunssfsi+0x46>
    2d4e:	9f d0       	rcall	.+318    	; 0x2e8e <__fp_zero>
    2d50:	b1 e0       	ldi	r27, 0x01	; 1
    2d52:	08 95       	ret
    2d54:	9c c0       	rjmp	.+312    	; 0x2e8e <__fp_zero>
    2d56:	67 2f       	mov	r22, r23
    2d58:	78 2f       	mov	r23, r24
    2d5a:	88 27       	eor	r24, r24
    2d5c:	b8 5f       	subi	r27, 0xF8	; 248
    2d5e:	39 f0       	breq	.+14     	; 0x2d6e <__fixunssfsi+0x46>
    2d60:	b9 3f       	cpi	r27, 0xF9	; 249
    2d62:	cc f3       	brlt	.-14     	; 0x2d56 <__fixunssfsi+0x2e>
    2d64:	86 95       	lsr	r24
    2d66:	77 95       	ror	r23
    2d68:	67 95       	ror	r22
    2d6a:	b3 95       	inc	r27
    2d6c:	d9 f7       	brne	.-10     	; 0x2d64 <__fixunssfsi+0x3c>
    2d6e:	3e f4       	brtc	.+14     	; 0x2d7e <__fixunssfsi+0x56>
    2d70:	90 95       	com	r25
    2d72:	80 95       	com	r24
    2d74:	70 95       	com	r23
    2d76:	61 95       	neg	r22
    2d78:	7f 4f       	sbci	r23, 0xFF	; 255
    2d7a:	8f 4f       	sbci	r24, 0xFF	; 255
    2d7c:	9f 4f       	sbci	r25, 0xFF	; 255
    2d7e:	08 95       	ret

00002d80 <__floatunsisf>:
    2d80:	e8 94       	clt
    2d82:	09 c0       	rjmp	.+18     	; 0x2d96 <__floatsisf+0x12>

00002d84 <__floatsisf>:
    2d84:	97 fb       	bst	r25, 7
    2d86:	3e f4       	brtc	.+14     	; 0x2d96 <__floatsisf+0x12>
    2d88:	90 95       	com	r25
    2d8a:	80 95       	com	r24
    2d8c:	70 95       	com	r23
    2d8e:	61 95       	neg	r22
    2d90:	7f 4f       	sbci	r23, 0xFF	; 255
    2d92:	8f 4f       	sbci	r24, 0xFF	; 255
    2d94:	9f 4f       	sbci	r25, 0xFF	; 255
    2d96:	99 23       	and	r25, r25
    2d98:	a9 f0       	breq	.+42     	; 0x2dc4 <__floatsisf+0x40>
    2d9a:	f9 2f       	mov	r31, r25
    2d9c:	96 e9       	ldi	r25, 0x96	; 150
    2d9e:	bb 27       	eor	r27, r27
    2da0:	93 95       	inc	r25
    2da2:	f6 95       	lsr	r31
    2da4:	87 95       	ror	r24
    2da6:	77 95       	ror	r23
    2da8:	67 95       	ror	r22
    2daa:	b7 95       	ror	r27
    2dac:	f1 11       	cpse	r31, r1
    2dae:	f8 cf       	rjmp	.-16     	; 0x2da0 <__floatsisf+0x1c>
    2db0:	fa f4       	brpl	.+62     	; 0x2df0 <__floatsisf+0x6c>
    2db2:	bb 0f       	add	r27, r27
    2db4:	11 f4       	brne	.+4      	; 0x2dba <__floatsisf+0x36>
    2db6:	60 ff       	sbrs	r22, 0
    2db8:	1b c0       	rjmp	.+54     	; 0x2df0 <__floatsisf+0x6c>
    2dba:	6f 5f       	subi	r22, 0xFF	; 255
    2dbc:	7f 4f       	sbci	r23, 0xFF	; 255
    2dbe:	8f 4f       	sbci	r24, 0xFF	; 255
    2dc0:	9f 4f       	sbci	r25, 0xFF	; 255
    2dc2:	16 c0       	rjmp	.+44     	; 0x2df0 <__floatsisf+0x6c>
    2dc4:	88 23       	and	r24, r24
    2dc6:	11 f0       	breq	.+4      	; 0x2dcc <__floatsisf+0x48>
    2dc8:	96 e9       	ldi	r25, 0x96	; 150
    2dca:	11 c0       	rjmp	.+34     	; 0x2dee <__floatsisf+0x6a>
    2dcc:	77 23       	and	r23, r23
    2dce:	21 f0       	breq	.+8      	; 0x2dd8 <__floatsisf+0x54>
    2dd0:	9e e8       	ldi	r25, 0x8E	; 142
    2dd2:	87 2f       	mov	r24, r23
    2dd4:	76 2f       	mov	r23, r22
    2dd6:	05 c0       	rjmp	.+10     	; 0x2de2 <__floatsisf+0x5e>
    2dd8:	66 23       	and	r22, r22
    2dda:	71 f0       	breq	.+28     	; 0x2df8 <__floatsisf+0x74>
    2ddc:	96 e8       	ldi	r25, 0x86	; 134
    2dde:	86 2f       	mov	r24, r22
    2de0:	70 e0       	ldi	r23, 0x00	; 0
    2de2:	60 e0       	ldi	r22, 0x00	; 0
    2de4:	2a f0       	brmi	.+10     	; 0x2df0 <__floatsisf+0x6c>
    2de6:	9a 95       	dec	r25
    2de8:	66 0f       	add	r22, r22
    2dea:	77 1f       	adc	r23, r23
    2dec:	88 1f       	adc	r24, r24
    2dee:	da f7       	brpl	.-10     	; 0x2de6 <__floatsisf+0x62>
    2df0:	88 0f       	add	r24, r24
    2df2:	96 95       	lsr	r25
    2df4:	87 95       	ror	r24
    2df6:	97 f9       	bld	r25, 7
    2df8:	08 95       	ret

00002dfa <__fp_inf>:
    2dfa:	97 f9       	bld	r25, 7
    2dfc:	9f 67       	ori	r25, 0x7F	; 127
    2dfe:	80 e8       	ldi	r24, 0x80	; 128
    2e00:	70 e0       	ldi	r23, 0x00	; 0
    2e02:	60 e0       	ldi	r22, 0x00	; 0
    2e04:	08 95       	ret

00002e06 <__fp_nan>:
    2e06:	9f ef       	ldi	r25, 0xFF	; 255
    2e08:	80 ec       	ldi	r24, 0xC0	; 192
    2e0a:	08 95       	ret

00002e0c <__fp_pscA>:
    2e0c:	00 24       	eor	r0, r0
    2e0e:	0a 94       	dec	r0
    2e10:	16 16       	cp	r1, r22
    2e12:	17 06       	cpc	r1, r23
    2e14:	18 06       	cpc	r1, r24
    2e16:	09 06       	cpc	r0, r25
    2e18:	08 95       	ret

00002e1a <__fp_pscB>:
    2e1a:	00 24       	eor	r0, r0
    2e1c:	0a 94       	dec	r0
    2e1e:	12 16       	cp	r1, r18
    2e20:	13 06       	cpc	r1, r19
    2e22:	14 06       	cpc	r1, r20
    2e24:	05 06       	cpc	r0, r21
    2e26:	08 95       	ret

00002e28 <__fp_round>:
    2e28:	09 2e       	mov	r0, r25
    2e2a:	03 94       	inc	r0
    2e2c:	00 0c       	add	r0, r0
    2e2e:	11 f4       	brne	.+4      	; 0x2e34 <__fp_round+0xc>
    2e30:	88 23       	and	r24, r24
    2e32:	52 f0       	brmi	.+20     	; 0x2e48 <__fp_round+0x20>
    2e34:	bb 0f       	add	r27, r27
    2e36:	40 f4       	brcc	.+16     	; 0x2e48 <__fp_round+0x20>
    2e38:	bf 2b       	or	r27, r31
    2e3a:	11 f4       	brne	.+4      	; 0x2e40 <__fp_round+0x18>
    2e3c:	60 ff       	sbrs	r22, 0
    2e3e:	04 c0       	rjmp	.+8      	; 0x2e48 <__fp_round+0x20>
    2e40:	6f 5f       	subi	r22, 0xFF	; 255
    2e42:	7f 4f       	sbci	r23, 0xFF	; 255
    2e44:	8f 4f       	sbci	r24, 0xFF	; 255
    2e46:	9f 4f       	sbci	r25, 0xFF	; 255
    2e48:	08 95       	ret

00002e4a <__fp_split3>:
    2e4a:	57 fd       	sbrc	r21, 7
    2e4c:	90 58       	subi	r25, 0x80	; 128
    2e4e:	44 0f       	add	r20, r20
    2e50:	55 1f       	adc	r21, r21
    2e52:	59 f0       	breq	.+22     	; 0x2e6a <__fp_splitA+0x10>
    2e54:	5f 3f       	cpi	r21, 0xFF	; 255
    2e56:	71 f0       	breq	.+28     	; 0x2e74 <__fp_splitA+0x1a>
    2e58:	47 95       	ror	r20

00002e5a <__fp_splitA>:
    2e5a:	88 0f       	add	r24, r24
    2e5c:	97 fb       	bst	r25, 7
    2e5e:	99 1f       	adc	r25, r25
    2e60:	61 f0       	breq	.+24     	; 0x2e7a <__fp_splitA+0x20>
    2e62:	9f 3f       	cpi	r25, 0xFF	; 255
    2e64:	79 f0       	breq	.+30     	; 0x2e84 <__fp_splitA+0x2a>
    2e66:	87 95       	ror	r24
    2e68:	08 95       	ret
    2e6a:	12 16       	cp	r1, r18
    2e6c:	13 06       	cpc	r1, r19
    2e6e:	14 06       	cpc	r1, r20
    2e70:	55 1f       	adc	r21, r21
    2e72:	f2 cf       	rjmp	.-28     	; 0x2e58 <__fp_split3+0xe>
    2e74:	46 95       	lsr	r20
    2e76:	f1 df       	rcall	.-30     	; 0x2e5a <__fp_splitA>
    2e78:	08 c0       	rjmp	.+16     	; 0x2e8a <__fp_splitA+0x30>
    2e7a:	16 16       	cp	r1, r22
    2e7c:	17 06       	cpc	r1, r23
    2e7e:	18 06       	cpc	r1, r24
    2e80:	99 1f       	adc	r25, r25
    2e82:	f1 cf       	rjmp	.-30     	; 0x2e66 <__fp_splitA+0xc>
    2e84:	86 95       	lsr	r24
    2e86:	71 05       	cpc	r23, r1
    2e88:	61 05       	cpc	r22, r1
    2e8a:	08 94       	sec
    2e8c:	08 95       	ret

00002e8e <__fp_zero>:
    2e8e:	e8 94       	clt

00002e90 <__fp_szero>:
    2e90:	bb 27       	eor	r27, r27
    2e92:	66 27       	eor	r22, r22
    2e94:	77 27       	eor	r23, r23
    2e96:	cb 01       	movw	r24, r22
    2e98:	97 f9       	bld	r25, 7
    2e9a:	08 95       	ret

00002e9c <__divmodhi4>:
    2e9c:	97 fb       	bst	r25, 7
    2e9e:	07 2e       	mov	r0, r23
    2ea0:	16 f4       	brtc	.+4      	; 0x2ea6 <__divmodhi4+0xa>
    2ea2:	00 94       	com	r0
    2ea4:	06 d0       	rcall	.+12     	; 0x2eb2 <__divmodhi4_neg1>
    2ea6:	77 fd       	sbrc	r23, 7
    2ea8:	08 d0       	rcall	.+16     	; 0x2eba <__divmodhi4_neg2>
    2eaa:	1a d0       	rcall	.+52     	; 0x2ee0 <__udivmodhi4>
    2eac:	07 fc       	sbrc	r0, 7
    2eae:	05 d0       	rcall	.+10     	; 0x2eba <__divmodhi4_neg2>
    2eb0:	3e f4       	brtc	.+14     	; 0x2ec0 <__divmodhi4_exit>

00002eb2 <__divmodhi4_neg1>:
    2eb2:	90 95       	com	r25
    2eb4:	81 95       	neg	r24
    2eb6:	9f 4f       	sbci	r25, 0xFF	; 255
    2eb8:	08 95       	ret

00002eba <__divmodhi4_neg2>:
    2eba:	70 95       	com	r23
    2ebc:	61 95       	neg	r22
    2ebe:	7f 4f       	sbci	r23, 0xFF	; 255

00002ec0 <__divmodhi4_exit>:
    2ec0:	08 95       	ret

00002ec2 <__umulhisi3>:
    2ec2:	a2 9f       	mul	r26, r18
    2ec4:	b0 01       	movw	r22, r0
    2ec6:	b3 9f       	mul	r27, r19
    2ec8:	c0 01       	movw	r24, r0
    2eca:	a3 9f       	mul	r26, r19
    2ecc:	70 0d       	add	r23, r0
    2ece:	81 1d       	adc	r24, r1
    2ed0:	11 24       	eor	r1, r1
    2ed2:	91 1d       	adc	r25, r1
    2ed4:	b2 9f       	mul	r27, r18
    2ed6:	70 0d       	add	r23, r0
    2ed8:	81 1d       	adc	r24, r1
    2eda:	11 24       	eor	r1, r1
    2edc:	91 1d       	adc	r25, r1
    2ede:	08 95       	ret

00002ee0 <__udivmodhi4>:
    2ee0:	aa 1b       	sub	r26, r26
    2ee2:	bb 1b       	sub	r27, r27
    2ee4:	51 e1       	ldi	r21, 0x11	; 17
    2ee6:	07 c0       	rjmp	.+14     	; 0x2ef6 <__udivmodhi4_ep>

00002ee8 <__udivmodhi4_loop>:
    2ee8:	aa 1f       	adc	r26, r26
    2eea:	bb 1f       	adc	r27, r27
    2eec:	a6 17       	cp	r26, r22
    2eee:	b7 07       	cpc	r27, r23
    2ef0:	10 f0       	brcs	.+4      	; 0x2ef6 <__udivmodhi4_ep>
    2ef2:	a6 1b       	sub	r26, r22
    2ef4:	b7 0b       	sbc	r27, r23

00002ef6 <__udivmodhi4_ep>:
    2ef6:	88 1f       	adc	r24, r24
    2ef8:	99 1f       	adc	r25, r25
    2efa:	5a 95       	dec	r21
    2efc:	a9 f7       	brne	.-22     	; 0x2ee8 <__udivmodhi4_loop>
    2efe:	80 95       	com	r24
    2f00:	90 95       	com	r25
    2f02:	bc 01       	movw	r22, r24
    2f04:	cd 01       	movw	r24, r26
    2f06:	08 95       	ret

00002f08 <_exit>:
    2f08:	f8 94       	cli

00002f0a <__stop_program>:
    2f0a:	ff cf       	rjmp	.-2      	; 0x2f0a <__stop_program>
